
MasterSoC_3pAIP_v2.elf:     file format elf32-littlenios2
MasterSoC_3pAIP_v2.elf
architecture: nios2:r1, flags 0x00000112:
EXEC_P, HAS_SYMS, D_PAGED
start address 0x00000180

Program Header:
    LOAD off    0x00001000 vaddr 0x00000000 paddr 0x00000000 align 2**12
         filesz 0x00000020 memsz 0x00000020 flags r-x
    LOAD off    0x00001020 vaddr 0x00000020 paddr 0x00000020 align 2**12
         filesz 0x000299b4 memsz 0x000299b4 flags r-x
    LOAD off    0x0002a9d4 vaddr 0x000299d4 paddr 0x0002a2c0 align 2**12
         filesz 0x000008ec memsz 0x000008ec flags rw-
    LOAD off    0x0002bbac vaddr 0x0002abac paddr 0x0002abac align 2**12
         filesz 0x00000000 memsz 0x00001350 flags rw-

Sections:
Idx Name          Size      VMA       LMA       File off  Algn
  0 .entry        00000020  00000000  00000000  00001000  2**5
                  CONTENTS, ALLOC, LOAD, READONLY, CODE
  1 .exceptions   00000160  00000020  00000020  00001020  2**2
                  CONTENTS, ALLOC, LOAD, READONLY, CODE
  2 .text         00028ab8  00000180  00000180  00001180  2**2
                  CONTENTS, ALLOC, LOAD, READONLY, CODE
  3 .rodata       00000d9c  00028c38  00028c38  00029c38  2**2
                  CONTENTS, ALLOC, LOAD, READONLY, DATA
  4 .rwdata       000008ec  000299d4  0002a2c0  0002a9d4  2**2
                  CONTENTS, ALLOC, LOAD, DATA, SMALL_DATA
  5 .bss          00001350  0002abac  0002abac  0002bbac  2**2
                  ALLOC, SMALL_DATA
  6 .mem_program  00000000  0002befc  0002befc  0002b2c0  2**0
                  CONTENTS
  7 .comment      00000023  00000000  00000000  0002b2c0  2**0
                  CONTENTS, READONLY
  8 .debug_aranges 000016d8  00000000  00000000  0002b2e8  2**3
                  CONTENTS, READONLY, DEBUGGING
  9 .debug_info   00065554  00000000  00000000  0002c9c0  2**0
                  CONTENTS, READONLY, DEBUGGING
 10 .debug_abbrev 0000fa07  00000000  00000000  00091f14  2**0
                  CONTENTS, READONLY, DEBUGGING
 11 .debug_line   0001603e  00000000  00000000  000a191b  2**0
                  CONTENTS, READONLY, DEBUGGING
 12 .debug_frame  00003d88  00000000  00000000  000b795c  2**2
                  CONTENTS, READONLY, DEBUGGING
 13 .debug_str    00008f0a  00000000  00000000  000bb6e4  2**0
                  CONTENTS, READONLY, DEBUGGING
 14 .debug_loc    000347e2  00000000  00000000  000c45ee  2**0
                  CONTENTS, READONLY, DEBUGGING
 15 .debug_alt_sim_info 00000010  00000000  00000000  000f8dd0  2**2
                  CONTENTS, READONLY, DEBUGGING
 16 .debug_ranges 00002838  00000000  00000000  000f8de0  2**3
                  CONTENTS, READONLY, DEBUGGING
 17 .thread_model 00000003  00000000  00000000  00100439  2**0
                  CONTENTS, READONLY
 18 .cpu          0000000c  00000000  00000000  0010043c  2**0
                  CONTENTS, READONLY
 19 .qsys         00000001  00000000  00000000  00100448  2**0
                  CONTENTS, READONLY
 20 .simulation_enabled 00000001  00000000  00000000  00100449  2**0
                  CONTENTS, READONLY
 21 .stderr_dev   0000000b  00000000  00000000  0010044a  2**0
                  CONTENTS, READONLY
 22 .stdin_dev    0000000b  00000000  00000000  00100455  2**0
                  CONTENTS, READONLY
 23 .stdout_dev   0000000b  00000000  00000000  00100460  2**0
                  CONTENTS, READONLY
 24 .sopc_system_name 0000001a  00000000  00000000  0010046b  2**0
                  CONTENTS, READONLY
 25 .quartus_project_dir 0000003d  00000000  00000000  00100485  2**0
                  CONTENTS, READONLY
 26 .sopcinfo     0006bb40  00000000  00000000  001004c2  2**0
                  CONTENTS, READONLY
SYMBOL TABLE:
00000000 l    d  .entry	00000000 .entry
00000020 l    d  .exceptions	00000000 .exceptions
00000180 l    d  .text	00000000 .text
00028c38 l    d  .rodata	00000000 .rodata
000299d4 l    d  .rwdata	00000000 .rwdata
0002abac l    d  .bss	00000000 .bss
0002befc l    d  .mem_program	00000000 .mem_program
00000000 l    d  .comment	00000000 .comment
00000000 l    d  .debug_aranges	00000000 .debug_aranges
00000000 l    d  .debug_info	00000000 .debug_info
00000000 l    d  .debug_abbrev	00000000 .debug_abbrev
00000000 l    d  .debug_line	00000000 .debug_line
00000000 l    d  .debug_frame	00000000 .debug_frame
00000000 l    d  .debug_str	00000000 .debug_str
00000000 l    d  .debug_loc	00000000 .debug_loc
00000000 l    d  .debug_alt_sim_info	00000000 .debug_alt_sim_info
00000000 l    d  .debug_ranges	00000000 .debug_ranges
00000000 l    df *ABS*	00000000 ../MasterSoC_3pAIP_v2_bsp//obj/HAL/src/crt0.o
000001b8 l       .text	00000000 alt_after_alt_main
00000000 l    df *ABS*	00000000 alt_irq_handler.c
00000000 l    df *ABS*	00000000 alt_instruction_exception_entry.c
00000000 l    df *ABS*	00000000 ID00001001_dummy.c
00000000 l    df *ABS*	00000000 ID00004003_masterSOC.c
00000000 l    df *ABS*	00000000 aip.c
000004b4 l     F .text	00000028 aip_aipRead
000004dc l     F .text	00000028 aip_aipWrite
00000000 l    df *ABS*	00000000 main.c
00000000 l    df *ABS*	00000000 spi.c
00000000 l    df *ABS*	00000000 LMS7002M_afe.c
00000000 l    df *ABS*	00000000 LMS7002M_cgen.c
00000000 l    df *ABS*	00000000 LMS7002M_filter_cal.c
00000000 l    df *ABS*	00000000 LMS7002M_gfir.c
00000000 l    df *ABS*	00000000 LMS7002M_impl.c
00003914 l     F .text	00001f1c LMS7002M_regs_set
00005830 l     F .text	00000a08 LMS7002M_regs_init
00028ee0 l     O .rodata	00000258 addrs.3774
00000000 l    df *ABS*	00000000 LMS7002M_ldo.c
00000000 l    df *ABS*	00000000 LMS7002M_lml.c
0000909c l     F .text	00000024 __lms7002m_diq_index
00000000 l    df *ABS*	00000000 LMS7002M_logger.c
0002a27c l     O .rwdata	00000004 _log_level
0002a278 l     O .rwdata	00000004 _log_handler
00000000 l    df *ABS*	00000000 LMS7002M_nco.c
00000000 l    df *ABS*	00000000 LMS7002M_rbb.c
00000000 l    df *ABS*	00000000 LMS7002M_rfe.c
00000000 l    df *ABS*	00000000 LMS7002M_rx_filter_cal.c
0000a608 l     F .text	00000138 setup_rx_cal_tone
0000a740 l     F .text	000001ac rx_cal_loop.isra.0
00000000 l    df *ABS*	00000000 LMS7002M_rxtsp.c
00000000 l    df *ABS*	00000000 LMS7002M_sxx.c
00000000 l    df *ABS*	00000000 LMS7002M_tbb.c
00000000 l    df *ABS*	00000000 LMS7002M_time.c
00000000 l    df *ABS*	00000000 LMS7002M_trf.c
00000000 l    df *ABS*	00000000 LMS7002M_tx_filter_cal.c
0000cab0 l     F .text	000000c8 setup_tx_cal_tone
0000cb78 l     F .text	00000250 tx_cal_loop.isra.0.constprop.1
00000000 l    df *ABS*	00000000 LMS7002M_txtsp.c
00000000 l    df *ABS*	00000000 LMS7002M_vco.c
0000dfd8 l     F .text	00000040 LMS7002M_read_vco_cmp
0000e018 l     F .text	00000154 LMS7002M_tune_vco_sweep
00000000 l    df *ABS*	00000000 LMS7002M_xbuf.c
00000000 l    df *ABS*	00000000 platform.c
00000000 l    df *ABS*	00000000 util.c
00000000 l    df *ABS*	00000000 w_pow.c
00000000 l    df *ABS*	00000000 e_pow.c
00000000 l    df *ABS*	00000000 e_sqrt.c
00000000 l    df *ABS*	00000000 s_fabs.c
00000000 l    df *ABS*	00000000 s_finite.c
00000000 l    df *ABS*	00000000 s_fpclassify.c
00000000 l    df *ABS*	00000000 s_lib_ver.c
00000000 l    df *ABS*	00000000 s_matherr.c
00000000 l    df *ABS*	00000000 s_nan.c
00000000 l    df *ABS*	00000000 s_rint.c
00029290 l     O .rodata	00000010 TWO52
00000000 l    df *ABS*	00000000 s_scalbn.c
00000000 l    df *ABS*	00000000 s_copysign.c
00000000 l    df *ABS*	00000000 errno.c
00000000 l    df *ABS*	00000000 fclose.c
00000000 l    df *ABS*	00000000 fflush.c
00000000 l    df *ABS*	00000000 findfp.c
00010730 l     F .text	00000008 __fp_unlock
00010744 l     F .text	0000019c __sinit.part.1
000108e0 l     F .text	00000008 __fp_lock
00000000 l    df *ABS*	00000000 fopen.c
00000000 l    df *ABS*	00000000 fprintf.c
00000000 l    df *ABS*	00000000 fputs.c
00000000 l    df *ABS*	00000000 mallocr.c
00000000 l    df *ABS*	00000000 fseek.c
00000000 l    df *ABS*	00000000 fseeko.c
00000000 l    df *ABS*	00000000 fstatr.c
00000000 l    df *ABS*	00000000 fvwrite.c
00000000 l    df *ABS*	00000000 fwalk.c
00000000 l    df *ABS*	00000000 impure.c
000299d4 l     O .rwdata	00000424 impure_data
00000000 l    df *ABS*	00000000 int_errno.c
00000000 l    df *ABS*	00000000 makebuf.c
00000000 l    df *ABS*	00000000 malloc.c
00000000 l    df *ABS*	00000000 mallocr.c
00000000 l    df *ABS*	00000000 memchr.c
00000000 l    df *ABS*	00000000 memcpy.c
00000000 l    df *ABS*	00000000 memmove.c
00000000 l    df *ABS*	00000000 memset.c
00000000 l    df *ABS*	00000000 openr.c
00000000 l    df *ABS*	00000000 printf.c
00000000 l    df *ABS*	00000000 putchar.c
00000000 l    df *ABS*	00000000 puts.c
00000000 l    df *ABS*	00000000 mallocr.c
00000000 l    df *ABS*	00000000 refill.c
00013210 l     F .text	0000001c lflush
00000000 l    df *ABS*	00000000 sbrkr.c
00000000 l    df *ABS*	00000000 sscanf.c
00000000 l    df *ABS*	00000000 stdio.c
00000000 l    df *ABS*	00000000 strcmp.c
00000000 l    df *ABS*	00000000 strlen.c
00000000 l    df *ABS*	00000000 vfscanf.c
000292aa l     O .rodata	00000022 basefix.4340
00000000 l    df *ABS*	00000000 vfprintf.c
0002930e l     O .rodata	00000010 zeroes.4404
0001747c l     F .text	000000bc __sbprintf
0002931e l     O .rodata	00000010 blanks.4403
00000000 l    df *ABS*	00000000 writer.c
00000000 l    df *ABS*	00000000 wsetup.c
00000000 l    df *ABS*	00000000 closer.c
00000000 l    df *ABS*	00000000 ctype_.c
0002942f l     O .rodata	00000180 _ctype_b
00000000 l    df *ABS*	00000000 dtoa.c
00017740 l     F .text	00000228 quorem
00000000 l    df *ABS*	00000000 flags.c
00000000 l    df *ABS*	00000000 isattyr.c
00000000 l    df *ABS*	00000000 iswspace.c
00000000 l    df *ABS*	00000000 locale.c
0002a220 l     O .rwdata	00000020 lc_ctype_charset
0002a200 l     O .rwdata	00000020 lc_message_charset
0002a240 l     O .rwdata	00000038 lconv
00000000 l    df *ABS*	00000000 lseekr.c
00000000 l    df *ABS*	00000000 mbrtowc.c
00000000 l    df *ABS*	00000000 mbtowc_r.c
00000000 l    df *ABS*	00000000 mprec.c
000295cc l     O .rodata	0000000c p05.2768
00000000 l    df *ABS*	00000000 putc.c
00000000 l    df *ABS*	00000000 readr.c
00000000 l    df *ABS*	00000000 sccl.c
00000000 l    df *ABS*	00000000 sf_nan.c
00000000 l    df *ABS*	00000000 sprintf.c
00000000 l    df *ABS*	00000000 strtod.c
0001a89c l     F .text	00000064 sulp
00029700 l     O .rodata	00000014 fpinan.2773
00029714 l     O .rodata	00000014 fpi.2737
00029728 l     O .rodata	00000028 tinytens
00000000 l    df *ABS*	00000000 strtol.c
00000000 l    df *ABS*	00000000 strtoll_r.c
00000000 l    df *ABS*	00000000 strtoul.c
00000000 l    df *ABS*	00000000 strtoull_r.c
00000000 l    df *ABS*	00000000 vfscanf.c
00029750 l     O .rodata	00000022 basefix.3791
00000000 l    df *ABS*	00000000 vfprintf.c
00029772 l     O .rodata	00000010 zeroes.4389
00029782 l     O .rodata	00000010 blanks.4388
00000000 l    df *ABS*	00000000 ungetc.c
00000000 l    df *ABS*	00000000 vfprintf.c
00020428 l     F .text	000000fc __sprint_r.part.0
00029792 l     O .rodata	00000010 zeroes.4349
00021a64 l     F .text	000000bc __sbprintf
000297a2 l     O .rodata	00000010 blanks.4348
00000000 l    df *ABS*	00000000 wbuf.c
00000000 l    df *ABS*	00000000 mallocr.c
00000000 l    df *ABS*	00000000 fputwc.c
00000000 l    df *ABS*	00000000 gdtoa-gethex.c
00021f5c l     F .text	00000100 rshift
00000000 l    df *ABS*	00000000 gdtoa-hexnan.c
00000000 l    df *ABS*	00000000 strncmp.c
00000000 l    df *ABS*	00000000 vfprintf.c
000298b2 l     O .rodata	00000010 zeroes.4333
000298c2 l     O .rodata	00000010 blanks.4332
00000000 l    df *ABS*	00000000 wcrtomb.c
00000000 l    df *ABS*	00000000 wctomb_r.c
00000000 l    df *ABS*	00000000 libgcc2.c
00000000 l    df *ABS*	00000000 libgcc2.c
00000000 l    df *ABS*	00000000 libgcc2.c
00000000 l    df *ABS*	00000000 libgcc2.c
00000000 l    df *ABS*	00000000 libgcc2.c
00000000 l    df *ABS*	00000000 lib2-divmod.c
00000000 l    df *ABS*	00000000 lib2-mul.c
00000000 l    df *ABS*	00000000 eqsf2.c
00000000 l    df *ABS*	00000000 gesf2.c
00000000 l    df *ABS*	00000000 lesf2.c
00000000 l    df *ABS*	00000000 adddf3.c
00000000 l    df *ABS*	00000000 divdf3.c
00000000 l    df *ABS*	00000000 eqdf2.c
00000000 l    df *ABS*	00000000 gedf2.c
00000000 l    df *ABS*	00000000 ledf2.c
00000000 l    df *ABS*	00000000 muldf3.c
00000000 l    df *ABS*	00000000 subdf3.c
00000000 l    df *ABS*	00000000 fixdfsi.c
00000000 l    df *ABS*	00000000 floatsidf.c
00000000 l    df *ABS*	00000000 floatunsidf.c
00000000 l    df *ABS*	00000000 truncdfsf2.c
00000000 l    df *ABS*	00000000 libgcc2.c
00000000 l    df *ABS*	00000000 libgcc2.c
00000000 l    df *ABS*	00000000 alt_close.c
00000000 l    df *ABS*	00000000 alt_errno.c
00000000 l    df *ABS*	00000000 alt_fstat.c
00000000 l    df *ABS*	00000000 alt_gettod.c
00000000 l    df *ABS*	00000000 alt_iic.c
00000000 l    df *ABS*	00000000 alt_iic_isr_register.c
00000000 l    df *ABS*	00000000 alt_irq_vars.c
00000000 l    df *ABS*	00000000 alt_isatty.c
00000000 l    df *ABS*	00000000 alt_load.c
00000000 l    df *ABS*	00000000 alt_lseek.c
00000000 l    df *ABS*	00000000 alt_main.c
00000000 l    df *ABS*	00000000 alt_malloc_lock.c
00000000 l    df *ABS*	00000000 alt_open.c
00000000 l    df *ABS*	00000000 alt_read.c
00000000 l    df *ABS*	00000000 alt_sbrk.c
0002a2ac l     O .rwdata	00000004 heap_end
00000000 l    df *ABS*	00000000 alt_tick.c
00000000 l    df *ABS*	00000000 alt_write.c
00000000 l    df *ABS*	00000000 alt_sys_init.c
00000000 l    df *ABS*	00000000 altera_avalon_jtag_uart_read.c
00000000 l    df *ABS*	00000000 altera_avalon_jtag_uart_write.c
00000000 l    df *ABS*	00000000 alt_dcache_flush_all.c
00000000 l    df *ABS*	00000000 alt_icache_flush_all.c
00000000 l    df *ABS*	00000000 altera_nios2_gen2_irq.c
0002abf8 g     O .bss	00000004 alt_instruction_exception_handler
00012bc0 g     F .text	00000018 putchar
0001a3c0 g     F .text	00000074 _mprec_log10
0001a4ac g     F .text	0000008c __any_on
0001909c g     F .text	00000054 _isatty_r
000295d8 g     O .rodata	00000028 __mprec_tinytens
000288a0 g     F .text	0000002c alt_main
0000e52c g     F .text	0000002c mdelay
0000e42c g     F .text	0000003c spi_write_API
00012bd8 g     F .text	000000c0 _puts_r
0002bdfc g     O .bss	00000100 alt_irq
0000bf88 g     F .text	000000c4 LMS7002M_sxx_apply_tune_state
0000ff18 g     F .text	00000014 fabs
000191fc g     F .text	00000060 _lseek_r
0002a2c0 g       *ABS*	00000000 __flash_rwdata_start
00018ff0 g     F .text	000000ac __sflags
00026d1c g     F .text	00000088 .hidden __eqdf2
000244b0 g     F .text	00000658 .hidden __divdi3
0002befc g       *ABS*	00000000 __alt_heap_start
00003450 g     F .text	000000f0 cal_gain_selection
00012b7c g     F .text	0000003c printf
00024148 g     F .text	0000009c _wcrtomb_r
00013620 g     F .text	0000005c __sseek
00010a90 g     F .text	00000010 __sinit
00021b20 g     F .text	00000140 __swbuf_r
000098ac g     F .text	00000128 LMS7002M_set_nco_freq
00019120 g     F .text	0000007c _setlocale_r
000108e8 g     F .text	00000078 __sfmoreglue
00020410 g     F .text	00000018 ungetc
000288d0 g     F .text	00000004 __malloc_unlock
00000640 g     F .text	0000008c aip_enableINT
0001a900 g     F .text	000015e4 _strtod_r
00000894 g     F .text	00000020 start_isr
0000e33c g     F .text	0000004c LMS7002M_xbuf_share_tx
0001cca0 g     F .text	00000100 _sfread_r
00012868 g     F .text	0000015c memmove
00010a78 g     F .text	00000018 _cleanup
00019480 g     F .text	000000a8 _Balloc
0000c04c g     F .text	00000388 LMS7002M_set_lo_freq
00026da4 g     F .text	000000dc .hidden __gtdf2
00028c30 g     F .text	00000008 altera_nios2_gen2_irq_init
00010374 g     F .text	00000010 __errno
00000000 g     F .entry	0000000c __reset
00000020 g       *ABS*	00000000 __flash_exceptions_start
0000e6c0 g     F .text	00000058 find_first_bit
0000a1cc g     F .text	00000358 LMS7002M_rfe_set_loopback_lna
000115a0 g     F .text	0000005c _fstat_r
0002abb4 g     O .bss	00000004 errno
0001359c g     F .text	00000008 __seofread
00022da8 g     F .text	000013a0 ___svfiprintf_internal_r
0002abe8 g     O .bss	00000004 alt_argv
00032278 g       *ABS*	00000000 _gp
000008b4 g     F .text	00000050 int_setup
000005f0 g     F .text	00000028 aip_getID
00012bb8 g     F .text	00000008 _putchar_r
000062b8 g     F .text	0000001c LMS7002M_spi_write
00012720 g     F .text	00000148 memcpy
000228ac g     F .text	0000025c __hexnan
00000bb0 g     F .text	000000a8 spi_write_then_read
00000348 g     F .text	0000001c ID00001001_getStatus
00010738 g     F .text	0000000c _cleanup_r
0002815c g     F .text	000000dc .hidden __floatsidf
00026e80 g     F .text	000000f4 .hidden __ltdf2
00012c98 g     F .text	00000014 puts
00028bbc g     F .text	00000074 alt_exception_cause_generated_bad_addr
00019308 g     F .text	000000d8 mbrtowc
00000c58 g     F .text	00000114 LMS7002M_afe_enable
0000ff48 g     F .text	00000074 __fpclassifyd
0001a31c g     F .text	000000a4 __ratio
00021a48 g     F .text	0000001c __vfiprintf_internal
0000959c g     F .text	0000004c LMS7002M_invert_fclk
0000045c g     F .text	0000001c ID00004003_getStatus
0000ba64 g     F .text	00000068 LMS7002M_rxtsp_set_dc_correction
00028b24 g     F .text	0000005c altera_avalon_jtag_uart_read
0000d0ac g     F .text	000008d8 LMS7002M_tbb_set_filter_bw
0000031c g     F .text	0000002c ID00001001_readData
00011e08 g     F .text	00000014 malloc
00012b4c g     F .text	00000030 _printf_r
000257c0 g     F .text	00000064 .hidden __udivsi3
00028774 g     F .text	0000000c isatty
000190f0 g     F .text	00000030 iswspace
0000e3d4 g     F .text	00000008 spi_init
00029628 g     O .rodata	000000c8 __mprec_tens
0001919c g     F .text	0000000c __locale_charset
000259d8 g     F .text	000000c8 .hidden __lesf2
0002abd8 g     O .bss	00000008 alt_timezone
0002443c g     F .text	00000074 .hidden __fixunsdfsi
0002abc0 g     O .bss	00000004 __malloc_top_pad
0001cc30 g     F .text	00000070 __ssrefill_r
0002ac24 g     O .bss	000011d8 static_self
00008be0 g     F .text	000002bc LMS7002M_dump_ini
0001c7ec g     F .text	0000001c strtoul
0002a298 g     O .rwdata	00000004 __mb_cur_max
000191cc g     F .text	0000000c _localeconv_r
0001c808 g     F .text	00000320 _strtoull_r
000198b4 g     F .text	0000003c __i2b
000115fc g     F .text	000004c8 __sfvwrite_r
0000e558 g     F .text	00000008 msleep_interruptible
00013400 g     F .text	00000054 _sbrk_r
0000e468 g     F .text	00000080 spidev_interface_transact
000002d4 g     F .text	0000001c ID00001001_startIP
0001a6a0 g     F .text	00000060 _read_r
00003688 g     F .text	0000028c LMS7002M_set_gfir_taps
00010384 g     F .text	000000f0 _fclose_r
00010700 g     F .text	00000030 fflush
0000e568 g     F .text	00000040 int_sqrt
0002abbc g     O .bss	00000004 __malloc_max_sbrked_mem
00000404 g     F .text	0000002c ID00004003_writeData
0000b830 g     F .text	00000110 LMS7002M_rxtsp_tsg_const
000137f8 g     F .text	0000198c __ssvfscanf_r
00025aa0 g     F .text	000008ac .hidden __adddf3
000258a4 g     F .text	00000078 .hidden __nesf2
0001a0c4 g     F .text	0000010c __b2d
00025104 g     F .text	000005c4 .hidden __umoddi3
00028860 g     F .text	00000040 lseek
0000941c g     F .text	00000180 LMS7002M_configure_lml_port
000099d4 g     F .text	00000060 LMS7002M_rbb_enable
0002a280 g     O .rwdata	00000004 __fdlib_version
0002a284 g     O .rwdata	00000004 _global_impure_ptr
00012cac g     F .text	00000564 _realloc_r
0002befc g       *ABS*	00000000 __bss_end
0002870c g     F .text	00000068 alt_iic_isr_register
000289e8 g     F .text	000000b8 alt_tick
00009798 g     F .text	000000b8 default_handler
000297b2 g     O .rodata	00000100 __hexdig
00024b08 g     F .text	000005fc .hidden __udivdi3
0000e718 g     F .text	00000008 ERR_PTR
00021eb8 g     F .text	00000024 _fputwc_r
00029600 g     O .rodata	00000028 __mprec_bigtens
00019698 g     F .text	00000104 __s2b
00028238 g     F .text	000000a8 .hidden __floatunsidf
00019e04 g     F .text	00000060 __mcmp
00010ab0 g     F .text	00000018 __fp_lock_all
000286f4 g     F .text	00000018 alt_ic_irq_enabled
00000570 g     F .text	0000006c aip_writeConfReg
000002f0 g     F .text	0000002c ID00001001_writeData
0000b620 g     F .text	000000b8 LMS7002M_rxtsp_enable
000289b4 g     F .text	00000034 alt_alarm_stop
0001c254 g     F .text	0000001c strtol
0000e16c g     F .text	000001d0 LMS7002M_tune_vco
0002abe0 g     O .bss	00000004 alt_irq_active
00011140 g     F .text	00000444 _fseeko_r
0000075c g     F .text	00000030 aip_clearINT
000000fc g     F .exceptions	00000060 alt_irq_handler
0000ad58 g     F .text	000008c8 LMS7002M_rbb_set_filter_bw
0000c6d4 g     F .text	000000c0 LMS7002M_trf_enable
00000000 g       *ABS*	00000000 __alt_mem_mem_program
0000ffd0 g     F .text	000001ec rint
00028bb4 g     F .text	00000004 alt_dcache_flush_all
0001979c g     F .text	00000068 __hi0bits
000280dc g     F .text	00000080 .hidden __fixdfsi
0001bee4 g     F .text	00000018 strtod
00006238 g     F .text	0000007c LMS7002M_create
0002a2c0 g       *ABS*	00000000 __ram_rwdata_end
0000c4c4 g     F .text	00000040 LMS7002M_tbb_set_test_in
00028aa0 g     F .text	00000060 write
0001a538 g     F .text	000000a0 _putc_r
0002591c g     F .text	000000bc .hidden __gtsf2
000299d4 g       *ABS*	00000000 __ram_rodata_end
0002a2bc g     O .rwdata	00000004 jtag_uart_0
0000bacc g     F .text	000001e8 LMS7002M_rxtsp_set_iq_correction
0002852c g     F .text	00000020 fstat
00010c14 g     F .text	00000024 fprintf
00026e80 g     F .text	000000f4 .hidden __ledf2
00019b7c g     F .text	00000140 __pow5mult
0002053c g     F .text	0000150c ___vfiprintf_internal_r
0002abcc g     O .bss	00000004 __nlocale_changed
00025824 g     F .text	00000058 .hidden __umodsi3
0000e4f8 g     F .text	00000004 gpio_data
0002befc g       *ABS*	00000000 end
00011584 g     F .text	0000001c fseeko
00009f08 g     F .text	000002c4 LMS7002M_rfe_set_lna
00011124 g     F .text	0000001c fseek
00009b40 g     F .text	000001e4 LMS7002M_rbb_set_pga
0000986c g     F .text	00000038 LMS7_vlogf
0000015c g     F .exceptions	00000024 alt_instruction_exception_entry
0003e800 g       *ABS*	00000000 __alt_stack_pointer
00028488 g     F .text	00000064 .hidden __clzsi2
00028b80 g     F .text	00000034 altera_avalon_jtag_uart_write
00000904 g     F .text	00000048 start_setup
0000bd10 g     F .text	00000278 LMS7002M_sxx_calc_tune_state
00010aa0 g     F .text	00000004 __sfp_lock_acquire
0001263c g     F .text	000000e4 memchr
00015184 g     F .text	000022dc ___vfprintf_internal_r
0001a7d8 g     F .text	00000058 _sprintf_r
00010e10 g     F .text	00000310 _free_r
000191a8 g     F .text	00000010 __locale_mb_cur_max
0001cb28 g     F .text	00000108 _sungetc_r
0002abc8 g     O .bss	00000004 __mlocale_changed
0000963c g     F .text	00000024 LMS7002M_set_mac_dir
0002a28c g     O .rwdata	00000004 __malloc_sbrk_base
00000180 g     F .text	0000003c _start
0002abf4 g     O .bss	00000004 _alt_tick_rate
0001c270 g     F .text	00000304 _strtoll_r
0000920c g     F .text	000000b0 LMS7002M_reset_lml_fifo
0000dcf4 g     F .text	000000fc LMS7002M_txtsp_set_dc_correction
0000da28 g     F .text	000000b0 LMS7002M_txtsp_set_interp
00019cbc g     F .text	00000148 __lshift
0002abf0 g     O .bss	00000004 _alt_nticks
0000e5a8 g     F .text	00000098 ilog2
00028914 g     F .text	00000054 read
00028b20 g     F .text	00000004 alt_sys_init
00009660 g     F .text	00000138 LMS7002M_set_diq_mux
00022bd8 g     F .text	000001d0 __ssprint_r
00012aec g     F .text	00000060 _open_r
00022b08 g     F .text	000000d0 strncmp
000198f0 g     F .text	0000028c __multiply
0000ebec g     F .text	000010a4 __ieee754_pow
0000e728 g     F .text	000004c4 pow
00000b14 g     F .text	0000009c spi_read
0000e4fc g     F .text	00000004 gpio_set_value
0002587c g     F .text	00000028 .hidden __mulsi3
000299d4 g       *ABS*	00000000 __ram_rwdata_start
00028c38 g       *ABS*	00000000 __ram_rodata_start
0000e500 g     F .text	0000002c udelay
0002abfc g     O .bss	00000028 __malloc_current_mallinfo
000258a4 g     F .text	00000078 .hidden __eqsf2
0001a1d0 g     F .text	0000014c __d2b
0000bcb4 g     F .text	0000005c LMS7002M_sxx_enable
0001c574 g     F .text	00000278 _strtoul_r
0000c504 g     F .text	0000005c LMS7002M_tbb_enable_loopback
000176ec g     F .text	00000054 _close_r
00000d6c g     F .text	0000037c LMS7002M_set_data_clock
0000c794 g     F .text	0000004c LMS7002M_trf_select_band
0000a524 g     F .text	000000e4 LMS7002M_rfe_set_tia
000005dc g     F .text	00000004 aip_writeMem
0002befc g       *ABS*	00000000 __alt_stack_base
000095e8 g     F .text	00000054 LMS7002M_setup_digital_loopback
0002abac g     O .bss	00000004 start_state
00008f94 g     F .text	00000108 LMS7002M_ldo_enable
00013454 g     F .text	0000007c sscanf
0000cdc8 g     F .text	000002e4 tx_cal_init
0000db80 g     F .text	00000110 LMS7002M_txtsp_tsg_const
00017598 g     F .text	00000154 __swsetup_r
0002634c g     F .text	000009d0 .hidden __divdf3
00010960 g     F .text	00000118 __sfp
0001a434 g     F .text	00000078 __copybits
000003e8 g     F .text	0000001c ID00004003_startIP
00029df8 g     O .rwdata	00000408 __malloc_av_
00010aac g     F .text	00000004 __sinit_lock_release
0002abb0 g     O .bss	00000004 edge_val
00026f74 g     F .text	0000086c .hidden __muldf3
0000b9a4 g     F .text	000000c0 LMS7002M_rxtsp_read_rssi
00013548 g     F .text	00000054 __sread
0000e640 g     F .text	00000080 do_div
000288cc g     F .text	00000004 __malloc_lock
00010bec g     F .text	00000028 _fprintf_r
00028968 g     F .text	0000004c sbrk
00009afc g     F .text	00000044 LMS7002M_rbb_set_test_out
0001deec g     F .text	000022bc ___svfprintf_internal_r
000106a4 g     F .text	0000005c _fflush_r
00021c78 g     F .text	000000dc _calloc_r
0002854c g     F .text	00000134 gettimeofday
0000c3d4 g     F .text	0000004c LMS7002M_sxt_to_sxr
00010bd4 g     F .text	00000018 fopen
0002abac g       *ABS*	00000000 __bss_start
000129c4 g     F .text	00000128 memset
00003540 g     F .text	00000148 cal_setup_cgen
0000094c g     F .text	000001c8 main
0000ddf0 g     F .text	000001e8 LMS7002M_txtsp_set_iq_correction
0002abe4 g     O .bss	00000004 alt_envp
0002abb8 g     O .bss	00000004 __malloc_max_total_mem
0000e3dc g     F .text	00000050 spi_read_API
0002a2b8 g     O .rwdata	00000004 uart_0
00021c60 g     F .text	00000018 __swbuf
000259d8 g     F .text	000000c8 .hidden __ltsf2
0000b788 g     F .text	000000a8 LMS7002M_rxtsp_set_freq
0001367c g     F .text	00000008 __sclose
0000ffbc g     F .text	00000008 matherr
0003e800 g       *ABS*	00000000 __alt_heap_limit
00000808 g     F .text	0000008c int_isr
00010474 g     F .text	00000014 fclose
0001bffc g     F .text	00000258 _strtol_r
000282e0 g     F .text	000001a8 .hidden __truncdfsf2
000001bc g     F .text	00000074 ID00001001_init
00017968 g     F .text	00001688 _dtoa_r
00011e30 g     F .text	0000080c _malloc_r
00008ad0 g     F .text	00000094 LMS7002M_regs_to_rfic
000242a4 g     F .text	00000030 __ascii_wctomb
0000c98c g     F .text	00000124 LMS7002M_trf_set_loopback_pad
0000c824 g     F .text	00000168 LMS7002M_trf_set_pad
0002a2a4 g     O .rwdata	00000004 alt_errno
000201a8 g     F .text	000000d4 __submore
00011ac4 g     F .text	000000c4 _fwalk
0000a8ec g     F .text	0000046c rx_cal_init
00019424 g     F .text	0000005c _mbtowc_r
00008b64 g     F .text	0000007c LMS7002M_rfic_to_regs
000010e8 g     F .text	00000058 cal_read_rssi
0001a5d8 g     F .text	000000c8 putc
000256c8 g     F .text	00000084 .hidden __divsi3
00010cec g     F .text	00000124 _malloc_trim_r
0000c560 g     F .text	0000008c LMS7002M_tbb_enable
0000d984 g     F .text	000000a4 LMS7002M_txtsp_enable
0000ff2c g     F .text	0000001c finite
00009dec g     F .text	0000011c LMS7002M_rfe_set_path
0000c650 g     F .text	00000044 LMS7_sleep_until
0000e560 g     F .text	00000008 clk_prepare_enable
00013684 g     F .text	000000dc strcmp
0000c5fc g     F .text	00000054 LMS7_time_now
00028c38 g       *ABS*	00000000 __flash_rodata_start
0000b6d8 g     F .text	000000b0 LMS7002M_rxtsp_set_decim
00010358 g     F .text	0000001c copysign
00026d1c g     F .text	00000088 .hidden __nedf2
000091b4 g     F .text	00000058 LMS7002M_reset
00028b00 g     F .text	00000020 alt_irq_init
0000c7e0 g     F .text	00000044 LMS7002M_trf_enable_loopback
00000364 g     F .text	0000003c ID00001001_waitDone
00000280 g     F .text	00000054 ID00001001_disableDelay
0001a830 g     F .text	0000006c sprintf
000298d2 g     O .rodata	00000100 .hidden __clz_tab
00000430 g     F .text	0000002c ID00004003_readData
0002abc4 g     O .bss	00000004 _PathLocale
00001140 g     F .text	00002310 set_addrs_to_default
0001befc g     F .text	00000100 strtof
0002591c g     F .text	000000bc .hidden __gesf2
00017538 g     F .text	00000060 _write_r
000191d8 g     F .text	00000018 setlocale
000006cc g     F .text	00000090 aip_disableINT
0000c694 g     F .text	00000040 LMS7_sleep_for
0000c5ec g     F .text	00000010 LMS7_time_tps
0000dc90 g     F .text	00000064 LMS7002M_txtsp_tsg_tone
0001a7d0 g     F .text	00000008 nanf
0002a288 g     O .rwdata	00000004 _impure_ptr
000098a4 g     F .text	00000008 LMS7_set_log_handler
0002abec g     O .bss	00000004 alt_argc
00006300 g     F .text	0000278c LMS7002M_regs_spi_write
00010488 g     F .text	0000021c __sflush_r
000101bc g     F .text	0000019c scalbn
0001925c g     F .text	000000ac _mbrtowc_r
000191c4 g     F .text	00000008 __locale_cjk_lang
00011120 g     F .text	00000004 _fseek_r
00009a34 g     F .text	000000c8 LMS7002M_rbb_set_path
0001322c g     F .text	000001d4 __srefill_r
00000020 g       .exceptions	00000000 alt_irq_entry
000193e0 g     F .text	00000044 __ascii_mbtowc
0001a060 g     F .text	00000064 __ulp
00010ac8 g     F .text	00000018 __fp_unlock_all
00008ac8 g     F .text	00000008 LMS7002M_regs
00000230 g     F .text	00000050 ID00001001_enableDelay
000003a0 g     F .text	00000018 ID00001001_waitirq
0002abd0 g     O .bss	00000008 alt_resettime
00009858 g     F .text	00000014 LMS7_log
0000ffc4 g     F .text	0000000c nan
0000b940 g     F .text	00000064 LMS7002M_rxtsp_tsg_tone
0001cda0 g     F .text	0000114c __ssvfiscanf_r
00000020 g       *ABS*	00000000 __ram_exceptions_start
000191f0 g     F .text	0000000c localeconv
0000fc90 g     F .text	00000288 __ieee754_sqrt
000003b8 g     F .text	00000030 ID00004003_init
00009d24 g     F .text	000000c8 LMS7002M_rfe_enable
0000e388 g     F .text	0000004c LMS7002M_xbuf_enable_bias
00008a8c g     F .text	0000003c LMS7002M_regs_spi_read
00000504 g     F .text	0000006c aip_readMem
00028680 g     F .text	00000004 alt_ic_isr_register
00009850 g     F .text	00000008 LMS7_set_log_level
000134d0 g     F .text	00000078 _sscanf_r
0002a2c0 g       *ABS*	00000000 _edata
0002befc g       *ABS*	00000000 _end
00021d54 g     F .text	00000164 __fputwc
00000180 g       *ABS*	00000000 __ram_exceptions_end
0000c420 g     F .text	000000a4 LMS7002M_tbb_set_path
00010c38 g     F .text	0000009c _fputs_r
00008e9c g     F .text	000000f8 LMS7002M_load_ini
000286bc g     F .text	00000038 alt_ic_irq_disable
0000e4ec g     F .text	00000004 gpio_direction
000090c0 g     F .text	00000090 LMS7002M_set_mac_ch
000135a4 g     F .text	0000007c __swrite
0002a290 g     O .rwdata	00000004 __malloc_trim_threshold
000191b8 g     F .text	0000000c __locale_msgcharset
00011b88 g     F .text	000000c4 _fwalk_reent
00019e64 g     F .text	000001fc __mdiff
0002574c g     F .text	00000074 .hidden __modsi3
0002a294 g     O .rwdata	00000004 __ctype_ptr__
0003e800 g       *ABS*	00000000 __alt_data_end
00000020 g     F .exceptions	00000000 alt_exception
00010aa4 g     F .text	00000004 __sfp_lock_release
0001a700 g     F .text	000000d0 __sccl
0002932e g     O .rodata	00000101 _ctype_
000062d4 g     F .text	0000002c LMS7002M_spi_read
0002a29c g     O .rwdata	00000004 __mbtowc
000092bc g     F .text	00000160 LMS7002M_power_down
00010ae0 g     F .text	000000f4 _fopen_r
0000000c g       .entry	00000000 _exit
00024330 g     F .text	0000010c .hidden __muldi3
00011c4c g     F .text	000001bc __smakebuf_r
00013760 g     F .text	00000098 strlen
000288d4 g     F .text	00000040 open
00026da4 g     F .text	000000dc .hidden __gedf2
000007cc g     F .text	0000003c aip_getNotifications
0000078c g     F .text	00000040 aip_getINT
0002205c g     F .text	00000850 __gethex
0000e720 g     F .text	00000008 zmalloc
0002a2a0 g     O .rwdata	00000004 __wctomb
00020524 g     F .text	00000018 __sprint_r
00028bb8 g     F .text	00000004 alt_icache_flush_all
00010cd4 g     F .text	00000018 fputs
0002a2a8 g     O .rwdata	00000004 alt_priority_mask
0000e4e8 g     F .text	00000004 gpio_init
000005e0 g     F .text	00000010 aip_start
00028684 g     F .text	00000038 alt_ic_irq_enable
00017460 g     F .text	0000001c __vfprintf_internal
000242d4 g     F .text	0000005c _wctomb_r
000277e0 g     F .text	000008fc .hidden __subdf3
00019804 g     F .text	000000b0 __lo0bits
0002a2b0 g     O .rwdata	00000008 alt_alarm_list
0002027c g     F .text	00000194 _ungetc_r
000241e4 g     F .text	000000c0 wcrtomb
000284ec g     F .text	00000040 close
00009150 g     F .text	00000064 LMS7002M_set_spi_mode
00028780 g     F .text	000000e0 alt_load
000062b4 g     F .text	00000004 LMS7002M_destroy
0000dad8 g     F .text	000000a8 LMS7002M_txtsp_set_freq
00000618 g     F .text	00000028 aip_getStatus
00021edc g     F .text	00000080 fputwc
00011e1c g     F .text	00000014 free
00010aa8 g     F .text	00000004 __sinit_lock_acquire
00019550 g     F .text	00000148 __multadd
00019528 g     F .text	00000028 _Bfree
00000478 g     F .text	0000003c ID00004003_waitDone
0000e4f0 g     F .text	00000008 gpio_is_valid



Disassembly of section .entry:

00000000 <__reset>:
 * Jump to the _start entry point in the .text section if reset code
 * is allowed or if optimizing for RTL simulation.
 */
#if defined(ALT_ALLOW_CODE_AT_RESET) || defined(ALT_SIM_OPTIMIZE)
    /* Jump to the _start entry point in the .text section. */
    movhi r1, %hi(_start)
   0:	00400034 	movhi	at,0
    ori r1, r1, %lo(_start)
   4:	08406014 	ori	at,at,384
    jmp r1
   8:	0800683a 	jmp	at

0000000c <_exit>:
	...

Disassembly of section .exceptions:

00000020 <alt_exception>:

#else /* ALT_EXCEPTION_STACK disabled */
        /* 
         * Reserve space on normal stack for registers about to be pushed.
         */
        addi  sp, sp, -76
  20:	deffed04 	addi	sp,sp,-76
         * documentation for details).
         *
         * Leave a gap in the stack frame at 4(sp) for the muldiv handler to
         * store zero into.
         */
        stw   ra,  0(sp)
  24:	dfc00015 	stw	ra,0(sp)
        stw   r1,   8(sp)
  28:	d8400215 	stw	at,8(sp)
        stw   r2,  12(sp)
  2c:	d8800315 	stw	r2,12(sp)
        stw   r3,  16(sp)
  30:	d8c00415 	stw	r3,16(sp)
        stw   r4,  20(sp)
  34:	d9000515 	stw	r4,20(sp)
        stw   r5,  24(sp)
  38:	d9400615 	stw	r5,24(sp)
        stw   r6,  28(sp)
  3c:	d9800715 	stw	r6,28(sp)
        stw   r7,  32(sp)
  40:	d9c00815 	stw	r7,32(sp)
        rdctl r5, estatus   /* Read early to avoid usage stall */
  44:	000b307a 	rdctl	r5,estatus
        stw   r8,  36(sp)
  48:	da000915 	stw	r8,36(sp)
        stw   r9,  40(sp)
  4c:	da400a15 	stw	r9,40(sp)
        stw   r10, 44(sp)
  50:	da800b15 	stw	r10,44(sp)
        stw   r11, 48(sp)
  54:	dac00c15 	stw	r11,48(sp)
        stw   r12, 52(sp)
  58:	db000d15 	stw	r12,52(sp)
        stw   r13, 56(sp)
  5c:	db400e15 	stw	r13,56(sp)
        stw   r14, 60(sp)
  60:	db800f15 	stw	r14,60(sp)
        stw   r15, 64(sp)
  64:	dbc01015 	stw	r15,64(sp)
        /*
         * ea-4 contains the address of the instruction being executed
         * when the exception occured. For interrupt exceptions, we will
         * will be re-issue the isntruction. Store it in 72(sp)
         */
        stw   r5,  68(sp)  /* estatus */
  68:	d9401115 	stw	r5,68(sp)
        addi  r15, ea, -4  /* instruction that caused exception */
  6c:	ebffff04 	addi	r15,ea,-4
        stw   r15,  72(sp)
  70:	dbc01215 	stw	r15,72(sp)
#else
        /*
         * Test to see if the exception was a software exception or caused 
         * by an external interrupt, and vector accordingly.
         */
        rdctl r4, ipending
  74:	0009313a 	rdctl	r4,ipending
        andi  r2, r5, 1
  78:	2880004c 	andi	r2,r5,1
        beq   r2, zero, .Lnot_irq
  7c:	10000326 	beq	r2,zero,8c <alt_exception+0x6c>
        beq   r4, zero, .Lnot_irq
  80:	20000226 	beq	r4,zero,8c <alt_exception+0x6c>
        /*
         * Now that all necessary registers have been preserved, call 
         * alt_irq_handler() to process the interrupts.
         */

        call alt_irq_handler
  84:	00000fc0 	call	fc <alt_irq_handler>

        .section .exceptions.irqreturn, "xa"

        br    .Lexception_exit
  88:	00000706 	br	a8 <alt_exception+0x88>
         * upon completion, so we write ea (address of instruction *after*
         * the one where the exception occured) into 72(sp). The actual
         * instruction that caused the exception is written in r2, which these
         * handlers will utilize.
         */
        stw ea, 72(sp) /* EA is PC+4 so will skip over instruction causing exception */
  8c:	df401215 	stw	ea,72(sp)
.Lunknown_16bit:
        addi.n r4, r4, 2 /* Need PC+2 to skip over instruction causing exception */
        stw r4, 72(sp)

#else /* CDX is not Enabled and all instructions are 32bits */
        ldw r2, -4(ea) /* Instruction value that caused exception */
  90:	e8bfff17 	ldw	r2,-4(ea)
         * debugger is present) or go into an infinite loop since the
         * handling behavior is undefined; in that case we will not return here.
         */

        /* Load exception-causing address as first argument (r4) */
        addi   r4, ea, -4
  94:	e93fff04 	addi	r4,ea,-4

        /* Call the instruction-exception entry */
        call   alt_instruction_exception_entry
  98:	000015c0 	call	15c <alt_instruction_exception_entry>
         * instruction
         *
         * Return code was 0: Skip. The instruction after the exception is
         * already stored in 72(sp).
         */
        bne   r2, r0, .Lexception_exit
  9c:	1000021e 	bne	r2,zero,a8 <alt_exception+0x88>

        /*
         * Otherwise, modify 72(sp) to re-issue the instruction that caused the
         * exception.
         */
        addi  r15, ea, -4  /* instruction that caused exception */
  a0:	ebffff04 	addi	r15,ea,-4
        stw   r15,  72(sp)
  a4:	dbc01215 	stw	r15,72(sp)
        /* 
         * Restore the saved registers, so that all general purpose registers 
         * have been restored to their state at the time the interrupt occured.
         */

        ldw   r5,  68(sp)
  a8:	d9401117 	ldw	r5,68(sp)
        ldw   ea,  72(sp)  /* This becomes the PC once eret is executed */
  ac:	df401217 	ldw	ea,72(sp)
        ldw   ra,   0(sp)
  b0:	dfc00017 	ldw	ra,0(sp)

        wrctl estatus, r5
  b4:	2801707a 	wrctl	estatus,r5

        ldw   r1,   8(sp)
  b8:	d8400217 	ldw	at,8(sp)
        ldw   r2,  12(sp)
  bc:	d8800317 	ldw	r2,12(sp)
        ldw   r3,  16(sp)
  c0:	d8c00417 	ldw	r3,16(sp)
        ldw   r4,  20(sp)
  c4:	d9000517 	ldw	r4,20(sp)
        ldw   r5,  24(sp)
  c8:	d9400617 	ldw	r5,24(sp)
        ldw   r6,  28(sp)
  cc:	d9800717 	ldw	r6,28(sp)
        ldw   r7,  32(sp)
  d0:	d9c00817 	ldw	r7,32(sp)

#if defined(ALT_EXCEPTION_STACK) && defined(ALT_STACK_CHECK)
        ldw   et, %gprel(alt_exception_old_stack_limit)(gp)
#endif

        ldw   r8,  36(sp)
  d4:	da000917 	ldw	r8,36(sp)
        ldw   r9,  40(sp)
  d8:	da400a17 	ldw	r9,40(sp)
        ldw   r10, 44(sp)
  dc:	da800b17 	ldw	r10,44(sp)
        ldw   r11, 48(sp)
  e0:	dac00c17 	ldw	r11,48(sp)
        ldw   r12, 52(sp)
  e4:	db000d17 	ldw	r12,52(sp)
        ldw   r13, 56(sp)
  e8:	db400e17 	ldw	r13,56(sp)
        ldw   r14, 60(sp)
  ec:	db800f17 	ldw	r14,60(sp)
        ldw   r15, 64(sp)
  f0:	dbc01017 	ldw	r15,64(sp)
        stw   et, %gprel(alt_stack_limit_value)(gp)
        stw   zero, %gprel(alt_exception_old_stack_limit)(gp)
#endif /* ALT_STACK_CHECK */
        ldw   sp,  76(sp)
#else /* ALT_EXCEPTION_STACK disabled */
        addi  sp, sp, 76
  f4:	dec01304 	addi	sp,sp,76

        /*
         * Return to the interrupted instruction.
         */

        eret
  f8:	ef80083a 	eret

000000fc <alt_irq_handler>:
 * instruction is present if the macro ALT_CI_INTERRUPT_VECTOR defined.
 */

void alt_irq_handler (void) __attribute__ ((section (".exceptions")));
void alt_irq_handler (void)
{
  fc:	defffe04 	addi	sp,sp,-8
 100:	dfc00115 	stw	ra,4(sp)
 104:	dc000015 	stw	r16,0(sp)
#ifndef NIOS2_EIC_PRESENT
static ALT_INLINE alt_u32 ALT_ALWAYS_INLINE alt_irq_pending (void)
{
  alt_u32 active;

  NIOS2_READ_IPENDING (active);
 108:	0009313a 	rdctl	r4,ipending
    do
    {
      if (active & mask)
      { 
#ifdef ALT_ENHANCED_INTERRUPT_API_PRESENT
        alt_irq[i].handler(alt_irq[i].context); 
 10c:	040000f4 	movhi	r16,3
 110:	842f7f04 	addi	r16,r16,-16900

  active = alt_irq_pending ();

  do
  {
    i = 0;
 114:	0005883a 	mov	r2,zero
    mask = 1;
 118:	00c00044 	movi	r3,1
     * called to clear the interrupt condition.
     */

    do
    {
      if (active & mask)
 11c:	20ca703a 	and	r5,r4,r3
 120:	28000b26 	beq	r5,zero,150 <alt_irq_handler+0x54>
      { 
#ifdef ALT_ENHANCED_INTERRUPT_API_PRESENT
        alt_irq[i].handler(alt_irq[i].context); 
 124:	100490fa 	slli	r2,r2,3
 128:	8085883a 	add	r2,r16,r2
 12c:	10c00017 	ldw	r3,0(r2)
 130:	11000117 	ldw	r4,4(r2)
 134:	183ee83a 	callr	r3
 138:	0009313a 	rdctl	r4,ipending

    } while (1);

    active = alt_irq_pending ();
    
  } while (active);
 13c:	203ff51e 	bne	r4,zero,114 <__alt_data_end+0xfffc1914>
  /*
   * Notify the operating system that interrupt processing is complete.
   */ 

  ALT_OS_INT_EXIT();
}
 140:	dfc00117 	ldw	ra,4(sp)
 144:	dc000017 	ldw	r16,0(sp)
 148:	dec00204 	addi	sp,sp,8
 14c:	f800283a 	ret
#else
        alt_irq[i].handler(alt_irq[i].context, i); 
#endif
        break;
      }
      mask <<= 1;
 150:	18c7883a 	add	r3,r3,r3
      i++;
 154:	10800044 	addi	r2,r2,1

    } while (1);
 158:	003ff006 	br	11c <__alt_data_end+0xfffc191c>

0000015c <alt_instruction_exception_entry>:
#else
  cause = NIOS2_EXCEPTION_CAUSE_NOT_PRESENT;
  badaddr = 0;
#endif /* NIOS2_HAS_EXTRA_EXCEPTION_INFO */

  if(alt_instruction_exception_handler) {
 15c:	d0a26017 	ldw	r2,-30336(gp)
 160:	10000426 	beq	r2,zero,174 <alt_instruction_exception_entry+0x18>
     * Call handler. Its return value indicates whether the exception-causing
     * instruction should be re-issued. The code that called us,
     * alt_eceptions_entry.S, will look at this value and adjust the ea
     * register as necessary
     */
    return alt_instruction_exception_handler(cause, exception_pc, badaddr);
 164:	200b883a 	mov	r5,r4
 168:	000d883a 	mov	r6,zero
 16c:	013fffc4 	movi	r4,-1
 170:	1000683a 	jmp	r2
   *    (a peripheral which negates its interrupt output before its
   *    interrupt handler has been executed will cause spurious interrupts)
   */
  else {
#ifdef NIOS2_HAS_DEBUG_STUB
    NIOS2_BREAK();
 174:	003da03a 	break	0
#endif /* NIOS2_HAS_DEBUG_STUB */
  }

  /* We should not get here. Remove compiler warning. */
  return NIOS2_EXCEPTION_RETURN_REISSUE_INST;
}
 178:	0005883a 	mov	r2,zero
 17c:	f800283a 	ret

Disassembly of section .text:

00000180 <_start>:

    /*
     * Now that the caches are initialized, set up the stack pointer and global pointer.
     * The values provided by the linker are assumed to be correctly aligned.
     */
    movhi sp, %hi(__alt_stack_pointer)
     180:	06c000f4 	movhi	sp,3
    ori sp, sp, %lo(__alt_stack_pointer)
     184:	defa0014 	ori	sp,sp,59392
    movhi gp, %hi(_gp)
     188:	068000f4 	movhi	gp,3
    ori gp, gp, %lo(_gp)
     18c:	d6889e14 	ori	gp,gp,8824
 */
#ifndef ALT_SIM_OPTIMIZE
    /* Log that the BSS is about to be cleared. */
    ALT_LOG_PUTS(alt_log_msg_bss)

    movhi r2, %hi(__bss_start)
     190:	008000b4 	movhi	r2,2
    ori r2, r2, %lo(__bss_start)
     194:	10aaeb14 	ori	r2,r2,43948

    movhi r3, %hi(__bss_end)
     198:	00c000b4 	movhi	r3,2
    ori r3, r3, %lo(__bss_end)
     19c:	18efbf14 	ori	r3,r3,48892

    beq r2, r3, 1f
     1a0:	10c00326 	beq	r2,r3,1b0 <_start+0x30>

0:
    stw zero, (r2)
     1a4:	10000015 	stw	zero,0(r2)
    addi r2, r2, 4
     1a8:	10800104 	addi	r2,r2,4
    bltu r2, r3, 0b
     1ac:	10fffd36 	bltu	r2,r3,1a4 <__alt_data_end+0xfffc19a4>
     * section aren't defined until alt_load() has been called).
     */
    mov   et, zero
#endif

    call alt_load
     1b0:	00287800 	call	28780 <alt_load>

    /* Log that alt_main is about to be called. */
    ALT_LOG_PUTS(alt_log_msg_alt_main)

    /* Call the C entry point. It should never return. */
    call alt_main
     1b4:	00288a00 	call	288a0 <alt_main>

000001b8 <alt_after_alt_main>:

    /* Wait in infinite loop in case alt_main does return. */
alt_after_alt_main:
    br alt_after_alt_main
     1b8:	003fff06 	br	1b8 <__alt_data_end+0xfffc19b8>

000001bc <ID00001001_init>:

static int32_t ID00001001_clearStatus(uint32_t port);


int32_t ID00001001_init(uint32_t port)
{
     1bc:	defffb04 	addi	sp,sp,-20
    uint32_t id;

    //aip_init(port, ID00001001_csv, ID00001001_CONFIG_AMOUNT);

    aip_getID(port, &id);
     1c0:	d80b883a 	mov	r5,sp

static int32_t ID00001001_clearStatus(uint32_t port);


int32_t ID00001001_init(uint32_t port)
{
     1c4:	dfc00415 	stw	ra,16(sp)
     1c8:	dc800315 	stw	r18,12(sp)
     1cc:	dc400215 	stw	r17,8(sp)
     1d0:	dc000115 	stw	r16,4(sp)
     1d4:	2023883a 	mov	r17,r4
    uint32_t id;

    //aip_init(port, ID00001001_csv, ID00001001_CONFIG_AMOUNT);

    aip_getID(port, &id);
     1d8:	00005f00 	call	5f0 <aip_getID>
    printf("ID:%x\n",id);
     1dc:	d9400017 	ldw	r5,0(sp)
     1e0:	010000f4 	movhi	r4,3
     1e4:	21230e04 	addi	r4,r4,-29640
     1e8:	0012b7c0 	call	12b7c <printf>
    return 0;
}

static int32_t ID00001001_clearStatus(uint32_t port)
{
    for(uint32_t i = 0; i < ID00001001_STATUS_BITS; i++)
     1ec:	0021883a 	mov	r16,zero
     1f0:	04800204 	movi	r18,8
    {
        aip_disableINT(port, i);
     1f4:	800b883a 	mov	r5,r16
     1f8:	8809883a 	mov	r4,r17
     1fc:	00006cc0 	call	6cc <aip_disableINT>
        
        aip_clearINT(port, i);
     200:	800b883a 	mov	r5,r16
     204:	8809883a 	mov	r4,r17
    return 0;
}

static int32_t ID00001001_clearStatus(uint32_t port)
{
    for(uint32_t i = 0; i < ID00001001_STATUS_BITS; i++)
     208:	84000044 	addi	r16,r16,1
    {
        aip_disableINT(port, i);
        
        aip_clearINT(port, i);
     20c:	000075c0 	call	75c <aip_clearINT>
    return 0;
}

static int32_t ID00001001_clearStatus(uint32_t port)
{
    for(uint32_t i = 0; i < ID00001001_STATUS_BITS; i++)
     210:	84bff81e 	bne	r16,r18,1f4 <__alt_data_end+0xfffc19f4>
    aip_getID(port, &id);
    printf("ID:%x\n",id);
    ID00001001_clearStatus(port);

    return 0;
}
     214:	0005883a 	mov	r2,zero
     218:	dfc00417 	ldw	ra,16(sp)
     21c:	dc800317 	ldw	r18,12(sp)
     220:	dc400217 	ldw	r17,8(sp)
     224:	dc000117 	ldw	r16,4(sp)
     228:	dec00504 	addi	sp,sp,20
     22c:	f800283a 	ret

00000230 <ID00001001_enableDelay>:

int32_t ID00001001_enableDelay(uint32_t port, uint32_t msec)
{
    uint32_t delay = 0;

    delay = (msec << 1) | 1;
     230:	294b883a 	add	r5,r5,r5

    return 0;
}

int32_t ID00001001_enableDelay(uint32_t port, uint32_t msec)
{
     234:	defffc04 	addi	sp,sp,-16
    uint32_t delay = 0;

    delay = (msec << 1) | 1;
     238:	29400054 	ori	r5,r5,1
     23c:	d9400115 	stw	r5,4(sp)

    aip_writeConfReg(port, CDELAY, &delay, 1, 0);
     240:	01c00044 	movi	r7,1
     244:	d9800104 	addi	r6,sp,4
     248:	d8000015 	stw	zero,0(sp)
     24c:	01400104 	movi	r5,4

    return 0;
}

int32_t ID00001001_enableDelay(uint32_t port, uint32_t msec)
{
     250:	dfc00315 	stw	ra,12(sp)
     254:	dc000215 	stw	r16,8(sp)
     258:	2021883a 	mov	r16,r4
    uint32_t delay = 0;

    delay = (msec << 1) | 1;

    aip_writeConfReg(port, CDELAY, &delay, 1, 0);
     25c:	00005700 	call	570 <aip_writeConfReg>

    aip_enableINT(port, ID00001001_STATUS_BIT_DONE);
     260:	000b883a 	mov	r5,zero
     264:	8009883a 	mov	r4,r16
     268:	00006400 	call	640 <aip_enableINT>

    return 0;
}
     26c:	0005883a 	mov	r2,zero
     270:	dfc00317 	ldw	ra,12(sp)
     274:	dc000217 	ldw	r16,8(sp)
     278:	dec00404 	addi	sp,sp,16
     27c:	f800283a 	ret

00000280 <ID00001001_disableDelay>:

int32_t ID00001001_disableDelay(uint32_t port)
{
     280:	defffc04 	addi	sp,sp,-16
    uint32_t delay = 0;

    aip_writeConfReg(port, CDELAY, &delay, 1, 0);
     284:	01c00044 	movi	r7,1
     288:	d9800104 	addi	r6,sp,4
     28c:	d8000015 	stw	zero,0(sp)
     290:	01400104 	movi	r5,4

    return 0;
}

int32_t ID00001001_disableDelay(uint32_t port)
{
     294:	dfc00315 	stw	ra,12(sp)
     298:	dc000215 	stw	r16,8(sp)
    uint32_t delay = 0;
     29c:	d8000115 	stw	zero,4(sp)

    return 0;
}

int32_t ID00001001_disableDelay(uint32_t port)
{
     2a0:	2021883a 	mov	r16,r4
    uint32_t delay = 0;

    aip_writeConfReg(port, CDELAY, &delay, 1, 0);
     2a4:	00005700 	call	570 <aip_writeConfReg>

    aip_disableINT(port, 0);
     2a8:	8009883a 	mov	r4,r16
     2ac:	000b883a 	mov	r5,zero
     2b0:	00006cc0 	call	6cc <aip_disableINT>
        
    aip_clearINT(port, 0);
     2b4:	000b883a 	mov	r5,zero
     2b8:	8009883a 	mov	r4,r16
     2bc:	000075c0 	call	75c <aip_clearINT>

    return 0;
}
     2c0:	0005883a 	mov	r2,zero
     2c4:	dfc00317 	ldw	ra,12(sp)
     2c8:	dc000217 	ldw	r16,8(sp)
     2cc:	dec00404 	addi	sp,sp,16
     2d0:	f800283a 	ret

000002d4 <ID00001001_startIP>:

int32_t ID00001001_startIP(uint32_t port)
{
     2d4:	deffff04 	addi	sp,sp,-4
     2d8:	dfc00015 	stw	ra,0(sp)
    aip_start(port);
     2dc:	00005e00 	call	5e0 <aip_start>

    return 0;
}
     2e0:	0005883a 	mov	r2,zero
     2e4:	dfc00017 	ldw	ra,0(sp)
     2e8:	dec00104 	addi	sp,sp,4
     2ec:	f800283a 	ret

000002f0 <ID00001001_writeData>:

int32_t ID00001001_writeData(uint32_t port, uint32_t *data, uint32_t size, uint32_t offset)
{
     2f0:	defffe04 	addi	sp,sp,-8
    aip_writeMem(port, MDATAIN, data, size, offset);
     2f4:	d9c00015 	stw	r7,0(sp)
     2f8:	31ffffcc 	andi	r7,r6,65535
     2fc:	280d883a 	mov	r6,r5
     300:	000b883a 	mov	r5,zero

    return 0;
}

int32_t ID00001001_writeData(uint32_t port, uint32_t *data, uint32_t size, uint32_t offset)
{
     304:	dfc00115 	stw	ra,4(sp)
    aip_writeMem(port, MDATAIN, data, size, offset);
     308:	00005dc0 	call	5dc <aip_writeMem>

    return 0;
}
     30c:	0005883a 	mov	r2,zero
     310:	dfc00117 	ldw	ra,4(sp)
     314:	dec00204 	addi	sp,sp,8
     318:	f800283a 	ret

0000031c <ID00001001_readData>:

int32_t ID00001001_readData(uint32_t port, uint32_t *data, uint32_t size, uint32_t offset)
{
     31c:	defffe04 	addi	sp,sp,-8
    aip_readMem(port, MDATAOUT, data, size, offset);
     320:	d9c00015 	stw	r7,0(sp)
     324:	31ffffcc 	andi	r7,r6,65535
     328:	280d883a 	mov	r6,r5
     32c:	01400084 	movi	r5,2

    return 0;
}

int32_t ID00001001_readData(uint32_t port, uint32_t *data, uint32_t size, uint32_t offset)
{
     330:	dfc00115 	stw	ra,4(sp)
    aip_readMem(port, MDATAOUT, data, size, offset);
     334:	00005040 	call	504 <aip_readMem>

    return 0;
}
     338:	0005883a 	mov	r2,zero
     33c:	dfc00117 	ldw	ra,4(sp)
     340:	dec00204 	addi	sp,sp,8
     344:	f800283a 	ret

00000348 <ID00001001_getStatus>:

int32_t ID00001001_getStatus(uint32_t port, uint32_t *status)
{
     348:	deffff04 	addi	sp,sp,-4
     34c:	dfc00015 	stw	ra,0(sp)
    aip_getStatus(port, status);
     350:	00006180 	call	618 <aip_getStatus>

    return 0;
}
     354:	0005883a 	mov	r2,zero
     358:	dfc00017 	ldw	ra,0(sp)
     35c:	dec00104 	addi	sp,sp,4
     360:	f800283a 	ret

00000364 <ID00001001_waitDone>:

int32_t ID00001001_waitDone(uint32_t port)
{
     364:	defffd04 	addi	sp,sp,-12
     368:	dc000115 	stw	r16,4(sp)
     36c:	dfc00215 	stw	ra,8(sp)
     370:	2021883a 	mov	r16,r4
    uint32_t statusINT = 0;
     374:	d8000015 	stw	zero,0(sp)

    do
    {
        aip_getINT(port, &statusINT);
     378:	d80b883a 	mov	r5,sp
     37c:	8009883a 	mov	r4,r16
     380:	000078c0 	call	78c <aip_getINT>
    } while (!(statusINT && 0x1));
     384:	d8800017 	ldw	r2,0(sp)
     388:	103ffb26 	beq	r2,zero,378 <__alt_data_end+0xfffc1b78>

    return 0;
}
     38c:	0005883a 	mov	r2,zero
     390:	dfc00217 	ldw	ra,8(sp)
     394:	dc000117 	ldw	r16,4(sp)
     398:	dec00304 	addi	sp,sp,12
     39c:	f800283a 	ret

000003a0 <ID00001001_waitirq>:
{
    uint32_t statusINT = 0;

    do
    {
        asm("nop");
     3a0:	0001883a 	nop

    } while (!start_state);
     3a4:	d0a24d17 	ldw	r2,-30412(gp)
     3a8:	103ffd26 	beq	r2,zero,3a0 <__alt_data_end+0xfffc1ba0>
    start_state = 0;
     3ac:	d0224d15 	stw	zero,-30412(gp)
    return 0;
}
     3b0:	0005883a 	mov	r2,zero
     3b4:	f800283a 	ret

000003b8 <ID00004003_init>:

static int32_t ID00004003_clearStatus(uint32_t port);


int32_t ID00004003_init(uint32_t port)
{
     3b8:	defffe04 	addi	sp,sp,-8
    uint32_t id;

    //aip_init(port, ID00004003_csv, ID00004003_CONFIG_AMOUNT);

    aip_getID(port, &id);
     3bc:	d80b883a 	mov	r5,sp

static int32_t ID00004003_clearStatus(uint32_t port);


int32_t ID00004003_init(uint32_t port)
{
     3c0:	dfc00115 	stw	ra,4(sp)
    uint32_t id;

    //aip_init(port, ID00004003_csv, ID00004003_CONFIG_AMOUNT);

    aip_getID(port, &id);
     3c4:	00005f00 	call	5f0 <aip_getID>
    printf("The ID is: %x \n", id );
     3c8:	d9400017 	ldw	r5,0(sp)
     3cc:	010000f4 	movhi	r4,3
     3d0:	21231004 	addi	r4,r4,-29632
     3d4:	0012b7c0 	call	12b7c <printf>
    //ID00004003_clearStatus(port);

    return 0;
}
     3d8:	0005883a 	mov	r2,zero
     3dc:	dfc00117 	ldw	ra,4(sp)
     3e0:	dec00204 	addi	sp,sp,8
     3e4:	f800283a 	ret

000003e8 <ID00004003_startIP>:

int32_t ID00004003_startIP(uint32_t port)
{
     3e8:	deffff04 	addi	sp,sp,-4
     3ec:	dfc00015 	stw	ra,0(sp)
    aip_start(port);
     3f0:	00005e00 	call	5e0 <aip_start>

    return 0;
}
     3f4:	0005883a 	mov	r2,zero
     3f8:	dfc00017 	ldw	ra,0(sp)
     3fc:	dec00104 	addi	sp,sp,4
     400:	f800283a 	ret

00000404 <ID00004003_writeData>:

int32_t ID00004003_writeData(uint32_t port, uint32_t *data, uint32_t size, uint32_t offset)
{
     404:	defffe04 	addi	sp,sp,-8
    aip_writeMem(port, MDATAOUT, data, size, offset);
     408:	d9c00015 	stw	r7,0(sp)
     40c:	31ffffcc 	andi	r7,r6,65535
     410:	280d883a 	mov	r6,r5
     414:	01400084 	movi	r5,2

    return 0;
}

int32_t ID00004003_writeData(uint32_t port, uint32_t *data, uint32_t size, uint32_t offset)
{
     418:	dfc00115 	stw	ra,4(sp)
    aip_writeMem(port, MDATAOUT, data, size, offset);
     41c:	00005dc0 	call	5dc <aip_writeMem>

    return 0;
}
     420:	0005883a 	mov	r2,zero
     424:	dfc00117 	ldw	ra,4(sp)
     428:	dec00204 	addi	sp,sp,8
     42c:	f800283a 	ret

00000430 <ID00004003_readData>:

int32_t ID00004003_readData(uint32_t port, uint32_t *data, uint32_t size, uint32_t offset)
{
     430:	defffe04 	addi	sp,sp,-8
    aip_readMem(port, MDATAIN, data, size, offset);
     434:	d9c00015 	stw	r7,0(sp)
     438:	31ffffcc 	andi	r7,r6,65535
     43c:	280d883a 	mov	r6,r5
     440:	000b883a 	mov	r5,zero

    return 0;
}

int32_t ID00004003_readData(uint32_t port, uint32_t *data, uint32_t size, uint32_t offset)
{
     444:	dfc00115 	stw	ra,4(sp)
    aip_readMem(port, MDATAIN, data, size, offset);
     448:	00005040 	call	504 <aip_readMem>

    return 0;
}
     44c:	0005883a 	mov	r2,zero
     450:	dfc00117 	ldw	ra,4(sp)
     454:	dec00204 	addi	sp,sp,8
     458:	f800283a 	ret

0000045c <ID00004003_getStatus>:

int32_t ID00004003_getStatus(uint32_t port, uint32_t *status)
{
     45c:	deffff04 	addi	sp,sp,-4
     460:	dfc00015 	stw	ra,0(sp)
    aip_getStatus(port, status);
     464:	00006180 	call	618 <aip_getStatus>

    return 0;
}
     468:	0005883a 	mov	r2,zero
     46c:	dfc00017 	ldw	ra,0(sp)
     470:	dec00104 	addi	sp,sp,4
     474:	f800283a 	ret

00000478 <ID00004003_waitDone>:

int32_t ID00004003_waitDone(uint32_t port)
{
     478:	defffd04 	addi	sp,sp,-12
     47c:	dc000115 	stw	r16,4(sp)
     480:	dfc00215 	stw	ra,8(sp)
     484:	2021883a 	mov	r16,r4
    uint32_t statusINT = 0;
     488:	d8000015 	stw	zero,0(sp)

    do
    {
        aip_getINT(port, &statusINT);
     48c:	d80b883a 	mov	r5,sp
     490:	8009883a 	mov	r4,r16
     494:	000078c0 	call	78c <aip_getINT>
    } while (!(statusINT && 0x1));
     498:	d8800017 	ldw	r2,0(sp)
     49c:	103ffb26 	beq	r2,zero,48c <__alt_data_end+0xfffc1c8c>

    return 0;
}
     4a0:	0005883a 	mov	r2,zero
     4a4:	dfc00217 	ldw	ra,8(sp)
     4a8:	dc000117 	ldw	r16,4(sp)
     4ac:	dec00304 	addi	sp,sp,12
     4b0:	f800283a 	ret

000004b4 <aip_aipRead>:
static uint8_t aip_aipRead (void *aipBaseAddr, uint32_t config, uint32_t *data, uint32_t size )
{

    volatile uint32_t *reg32 = (volatile uint32_t *)aipBaseAddr;

    reg32[AIP_CONFIG] = config;
     4b4:	21400815 	stw	r5,32(r4)

    for (uint32_t i = 0; i < size; i++)
     4b8:	0005883a 	mov	r2,zero
     4bc:	11c00526 	beq	r2,r7,4d4 <aip_aipRead+0x20>
	{
		data[i] = reg32[AIP_DATAOUT];
     4c0:	20c00017 	ldw	r3,0(r4)

    volatile uint32_t *reg32 = (volatile uint32_t *)aipBaseAddr;

    reg32[AIP_CONFIG] = config;

    for (uint32_t i = 0; i < size; i++)
     4c4:	10800044 	addi	r2,r2,1
     4c8:	31800104 	addi	r6,r6,4
	{
		data[i] = reg32[AIP_DATAOUT];
     4cc:	30ffff15 	stw	r3,-4(r6)
     4d0:	003ffa06 	br	4bc <__alt_data_end+0xfffc1cbc>
	}

	return 0 ;
};
     4d4:	0005883a 	mov	r2,zero
     4d8:	f800283a 	ret

000004dc <aip_aipWrite>:
static uint8_t aip_aipWrite (void *aipBaseAddr, uint32_t config, uint32_t *data, uint32_t size)
{

    volatile uint32_t *reg32 = (volatile uint32_t *)aipBaseAddr;

    reg32[AIP_CONFIG] = config;
     4dc:	21400815 	stw	r5,32(r4)

    for (uint32_t i = 0; i < size; i++) {
     4e0:	0005883a 	mov	r2,zero
     4e4:	11c00526 	beq	r2,r7,4fc <aip_aipWrite+0x20>
        reg32[AIP_DATAIN] = data[i];
     4e8:	30c00017 	ldw	r3,0(r6)

    volatile uint32_t *reg32 = (volatile uint32_t *)aipBaseAddr;

    reg32[AIP_CONFIG] = config;

    for (uint32_t i = 0; i < size; i++) {
     4ec:	10800044 	addi	r2,r2,1
     4f0:	31800104 	addi	r6,r6,4
        reg32[AIP_DATAIN] = data[i];
     4f4:	20c00415 	stw	r3,16(r4)
     4f8:	003ffa06 	br	4e4 <__alt_data_end+0xfffc1ce4>
    }

	return 0 ;
};
     4fc:	0005883a 	mov	r2,zero
     500:	f800283a 	ret

00000504 <aip_readMem>:

    return 0;
}
*/
int8_t aip_readMem (void *aipBaseAddr, uint8_t configMem, uint32_t* dataRead, uint16_t amountData, uint32_t offset)
{
     504:	defffb04 	addi	sp,sp,-20
     508:	dcc00315 	stw	r19,12(sp)
     50c:	dc000015 	stw	r16,0(sp)
     510:	3827883a 	mov	r19,r7
    /* set addrs */
    aip_aipWrite((void *)aipBaseAddr, configMem+1, &offset, 1);
     514:	2c003fcc 	andi	r16,r5,255
     518:	01c00044 	movi	r7,1
     51c:	81cb883a 	add	r5,r16,r7

    return 0;
}
*/
int8_t aip_readMem (void *aipBaseAddr, uint8_t configMem, uint32_t* dataRead, uint16_t amountData, uint32_t offset)
{
     520:	dc800215 	stw	r18,8(sp)
     524:	3025883a 	mov	r18,r6
    /* set addrs */
    aip_aipWrite((void *)aipBaseAddr, configMem+1, &offset, 1);
     528:	d9800504 	addi	r6,sp,20

    return 0;
}
*/
int8_t aip_readMem (void *aipBaseAddr, uint8_t configMem, uint32_t* dataRead, uint16_t amountData, uint32_t offset)
{
     52c:	dfc00415 	stw	ra,16(sp)
     530:	dc400115 	stw	r17,4(sp)
     534:	2023883a 	mov	r17,r4
    /* set addrs */
    aip_aipWrite((void *)aipBaseAddr, configMem+1, &offset, 1);
     538:	00004dc0 	call	4dc <aip_aipWrite>

    /* write data */
    aip_aipRead((void *)aipBaseAddr, configMem, dataRead, amountData);
     53c:	99ffffcc 	andi	r7,r19,65535
     540:	900d883a 	mov	r6,r18
     544:	800b883a 	mov	r5,r16
     548:	8809883a 	mov	r4,r17
     54c:	00004b40 	call	4b4 <aip_aipRead>

    return 0;
}
     550:	0005883a 	mov	r2,zero
     554:	dfc00417 	ldw	ra,16(sp)
     558:	dcc00317 	ldw	r19,12(sp)
     55c:	dc800217 	ldw	r18,8(sp)
     560:	dc400117 	ldw	r17,4(sp)
     564:	dc000017 	ldw	r16,0(sp)
     568:	dec00504 	addi	sp,sp,20
     56c:	f800283a 	ret

00000570 <aip_writeConfReg>:

    return 0;
}

int8_t aip_writeConfReg (void *aipBaseAddr, uint8_t configConfReg, uint32_t* dataWrite, uint16_t amountData, uint32_t offset)
{
     570:	defffb04 	addi	sp,sp,-20
     574:	dcc00315 	stw	r19,12(sp)
     578:	dc000015 	stw	r16,0(sp)
     57c:	3827883a 	mov	r19,r7
    /* set addrs */
    aip_aipWrite((void *)aipBaseAddr, configConfReg+1, &offset, 1);
     580:	2c003fcc 	andi	r16,r5,255
     584:	01c00044 	movi	r7,1
     588:	81cb883a 	add	r5,r16,r7

    return 0;
}

int8_t aip_writeConfReg (void *aipBaseAddr, uint8_t configConfReg, uint32_t* dataWrite, uint16_t amountData, uint32_t offset)
{
     58c:	dc800215 	stw	r18,8(sp)
     590:	3025883a 	mov	r18,r6
    /* set addrs */
    aip_aipWrite((void *)aipBaseAddr, configConfReg+1, &offset, 1);
     594:	d9800504 	addi	r6,sp,20

    return 0;
}

int8_t aip_writeConfReg (void *aipBaseAddr, uint8_t configConfReg, uint32_t* dataWrite, uint16_t amountData, uint32_t offset)
{
     598:	dfc00415 	stw	ra,16(sp)
     59c:	dc400115 	stw	r17,4(sp)
     5a0:	2023883a 	mov	r17,r4
    /* set addrs */
    aip_aipWrite((void *)aipBaseAddr, configConfReg+1, &offset, 1);
     5a4:	00004dc0 	call	4dc <aip_aipWrite>

    /* write data */
    aip_aipWrite((void *)aipBaseAddr, configConfReg, dataWrite, amountData);
     5a8:	99ffffcc 	andi	r7,r19,65535
     5ac:	900d883a 	mov	r6,r18
     5b0:	800b883a 	mov	r5,r16
     5b4:	8809883a 	mov	r4,r17
     5b8:	00004dc0 	call	4dc <aip_aipWrite>

    return 0;
}
     5bc:	0005883a 	mov	r2,zero
     5c0:	dfc00417 	ldw	ra,16(sp)
     5c4:	dcc00317 	ldw	r19,12(sp)
     5c8:	dc800217 	ldw	r18,8(sp)
     5cc:	dc400117 	ldw	r17,4(sp)
     5d0:	dc000017 	ldw	r16,0(sp)
     5d4:	dec00504 	addi	sp,sp,20
     5d8:	f800283a 	ret

000005dc <aip_writeMem>:
     5dc:	00005701 	jmpi	570 <aip_writeConfReg>

000005e0 <aip_start>:

static uint8_t aip_aipStart (void *aipBaseAddr)
{
    volatile uint32_t *reg32 = (volatile uint32_t *)aipBaseAddr;

    reg32[AIP_START] = 0x1;
     5e0:	00800044 	movi	r2,1
     5e4:	20800c15 	stw	r2,48(r4)
int8_t aip_start (void *aipBaseAddr)
{
    aip_aipStart((void *)aipBaseAddr);

    return 0;
}
     5e8:	0005883a 	mov	r2,zero
     5ec:	f800283a 	ret

000005f0 <aip_getID>:

int8_t aip_getID (void *aipBaseAddr, uint32_t *id)
{
     5f0:	deffff04 	addi	sp,sp,-4
    aip_aipRead((void *)aipBaseAddr, AIP_IPID, id, 1);
     5f4:	280d883a 	mov	r6,r5
     5f8:	01c00044 	movi	r7,1
     5fc:	014007c4 	movi	r5,31

    return 0;
}

int8_t aip_getID (void *aipBaseAddr, uint32_t *id)
{
     600:	dfc00015 	stw	ra,0(sp)
    aip_aipRead((void *)aipBaseAddr, AIP_IPID, id, 1);
     604:	00004b40 	call	4b4 <aip_aipRead>

    return 0;
}
     608:	0005883a 	mov	r2,zero
     60c:	dfc00017 	ldw	ra,0(sp)
     610:	dec00104 	addi	sp,sp,4
     614:	f800283a 	ret

00000618 <aip_getStatus>:

int8_t aip_getStatus (void *aipBaseAddr, uint32_t* status)
{
     618:	deffff04 	addi	sp,sp,-4
    aip_aipRead((void *)aipBaseAddr, AIP_STATUS, status, 1);
     61c:	280d883a 	mov	r6,r5
     620:	01c00044 	movi	r7,1
     624:	01400784 	movi	r5,30

    return 0;
}

int8_t aip_getStatus (void *aipBaseAddr, uint32_t* status)
{
     628:	dfc00015 	stw	ra,0(sp)
    aip_aipRead((void *)aipBaseAddr, AIP_STATUS, status, 1);
     62c:	00004b40 	call	4b4 <aip_aipRead>

    return 0;
}
     630:	0005883a 	mov	r2,zero
     634:	dfc00017 	ldw	ra,0(sp)
     638:	dec00104 	addi	sp,sp,4
     63c:	f800283a 	ret

00000640 <aip_enableINT>:

int8_t aip_enableINT (void *aipBaseAddr, uint8_t idxInt)
{
     640:	defffa04 	addi	sp,sp,-24
     644:	dc800315 	stw	r18,12(sp)
     648:	dc400215 	stw	r17,8(sp)
    uint32_t status = 0;

    aip_aipRead ((void *)aipBaseAddr, AIP_STATUS, &status, 1);
     64c:	04800784 	movi	r18,30
     650:	04400044 	movi	r17,1

    return 0;
}

int8_t aip_enableINT (void *aipBaseAddr, uint8_t idxInt)
{
     654:	dc000115 	stw	r16,4(sp)
    uint32_t status = 0;

    aip_aipRead ((void *)aipBaseAddr, AIP_STATUS, &status, 1);
     658:	880f883a 	mov	r7,r17
     65c:	d80d883a 	mov	r6,sp

    return 0;
}

int8_t aip_enableINT (void *aipBaseAddr, uint8_t idxInt)
{
     660:	2821883a 	mov	r16,r5
    uint32_t status = 0;

    aip_aipRead ((void *)aipBaseAddr, AIP_STATUS, &status, 1);
     664:	900b883a 	mov	r5,r18

    return 0;
}

int8_t aip_enableINT (void *aipBaseAddr, uint8_t idxInt)
{
     668:	dfc00515 	stw	ra,20(sp)
     66c:	dcc00415 	stw	r19,16(sp)
    uint32_t status = 0;
     670:	d8000015 	stw	zero,0(sp)

    return 0;
}

int8_t aip_enableINT (void *aipBaseAddr, uint8_t idxInt)
{
     674:	2027883a 	mov	r19,r4

    aip_aipRead ((void *)aipBaseAddr, AIP_STATUS, &status, 1);

    status &= AIP_STATUS_MASK_MASK;

    status |= (1 << (idxInt+AIP_STATUS_SHIFT_MASK));
     678:	84003fcc 	andi	r16,r16,255

int8_t aip_enableINT (void *aipBaseAddr, uint8_t idxInt)
{
    uint32_t status = 0;

    aip_aipRead ((void *)aipBaseAddr, AIP_STATUS, &status, 1);
     67c:	00004b40 	call	4b4 <aip_aipRead>

    status &= AIP_STATUS_MASK_MASK;

    status |= (1 << (idxInt+AIP_STATUS_SHIFT_MASK));
     680:	d8800017 	ldw	r2,0(sp)
     684:	84000404 	addi	r16,r16,16
     688:	8c20983a 	sll	r16,r17,r16
     68c:	10803fec 	andhi	r2,r2,255

    aip_aipWrite((void *)aipBaseAddr, AIP_STATUS, &status, 1);
     690:	880f883a 	mov	r7,r17

    aip_aipRead ((void *)aipBaseAddr, AIP_STATUS, &status, 1);

    status &= AIP_STATUS_MASK_MASK;

    status |= (1 << (idxInt+AIP_STATUS_SHIFT_MASK));
     694:	1420b03a 	or	r16,r2,r16

    aip_aipWrite((void *)aipBaseAddr, AIP_STATUS, &status, 1);
     698:	d80d883a 	mov	r6,sp
     69c:	900b883a 	mov	r5,r18
     6a0:	9809883a 	mov	r4,r19

    aip_aipRead ((void *)aipBaseAddr, AIP_STATUS, &status, 1);

    status &= AIP_STATUS_MASK_MASK;

    status |= (1 << (idxInt+AIP_STATUS_SHIFT_MASK));
     6a4:	dc000015 	stw	r16,0(sp)

    aip_aipWrite((void *)aipBaseAddr, AIP_STATUS, &status, 1);
     6a8:	00004dc0 	call	4dc <aip_aipWrite>

    return 0;
}
     6ac:	0005883a 	mov	r2,zero
     6b0:	dfc00517 	ldw	ra,20(sp)
     6b4:	dcc00417 	ldw	r19,16(sp)
     6b8:	dc800317 	ldw	r18,12(sp)
     6bc:	dc400217 	ldw	r17,8(sp)
     6c0:	dc000117 	ldw	r16,4(sp)
     6c4:	dec00604 	addi	sp,sp,24
     6c8:	f800283a 	ret

000006cc <aip_disableINT>:

int8_t aip_disableINT (void *aipBaseAddr, uint8_t idxInt)
{
     6cc:	defffa04 	addi	sp,sp,-24
     6d0:	dc800315 	stw	r18,12(sp)
     6d4:	dc400215 	stw	r17,8(sp)
     6d8:	dc000115 	stw	r16,4(sp)
    uint32_t status = 0;

    aip_aipRead ((void *)aipBaseAddr, AIP_STATUS, &status, 1);
     6dc:	04400044 	movi	r17,1
     6e0:	04800784 	movi	r18,30

    return 0;
}

int8_t aip_disableINT (void *aipBaseAddr, uint8_t idxInt)
{
     6e4:	2821883a 	mov	r16,r5
    uint32_t status = 0;

    aip_aipRead ((void *)aipBaseAddr, AIP_STATUS, &status, 1);
     6e8:	880f883a 	mov	r7,r17
     6ec:	d80d883a 	mov	r6,sp
     6f0:	900b883a 	mov	r5,r18

    status &= AIP_STATUS_MASK_MASK;

    status &= ~(uint32_t)(1 << (idxInt+AIP_STATUS_SHIFT_MASK));
     6f4:	84003fcc 	andi	r16,r16,255

    return 0;
}

int8_t aip_disableINT (void *aipBaseAddr, uint8_t idxInt)
{
     6f8:	dfc00515 	stw	ra,20(sp)
     6fc:	dcc00415 	stw	r19,16(sp)
    uint32_t status = 0;
     700:	d8000015 	stw	zero,0(sp)

    return 0;
}

int8_t aip_disableINT (void *aipBaseAddr, uint8_t idxInt)
{
     704:	2027883a 	mov	r19,r4

    aip_aipRead ((void *)aipBaseAddr, AIP_STATUS, &status, 1);

    status &= AIP_STATUS_MASK_MASK;

    status &= ~(uint32_t)(1 << (idxInt+AIP_STATUS_SHIFT_MASK));
     708:	84000404 	addi	r16,r16,16

int8_t aip_disableINT (void *aipBaseAddr, uint8_t idxInt)
{
    uint32_t status = 0;

    aip_aipRead ((void *)aipBaseAddr, AIP_STATUS, &status, 1);
     70c:	00004b40 	call	4b4 <aip_aipRead>

    status &= AIP_STATUS_MASK_MASK;

    status &= ~(uint32_t)(1 << (idxInt+AIP_STATUS_SHIFT_MASK));
     710:	d8800017 	ldw	r2,0(sp)
     714:	8c20983a 	sll	r16,r17,r16

    aip_aipWrite((void *)aipBaseAddr, AIP_STATUS, &status, 1);
     718:	880f883a 	mov	r7,r17

    aip_aipRead ((void *)aipBaseAddr, AIP_STATUS, &status, 1);

    status &= AIP_STATUS_MASK_MASK;

    status &= ~(uint32_t)(1 << (idxInt+AIP_STATUS_SHIFT_MASK));
     71c:	10803fec 	andhi	r2,r2,255
     720:	0420303a 	nor	r16,zero,r16
     724:	80a0703a 	and	r16,r16,r2

    aip_aipWrite((void *)aipBaseAddr, AIP_STATUS, &status, 1);
     728:	d80d883a 	mov	r6,sp
     72c:	900b883a 	mov	r5,r18
     730:	9809883a 	mov	r4,r19

    aip_aipRead ((void *)aipBaseAddr, AIP_STATUS, &status, 1);

    status &= AIP_STATUS_MASK_MASK;

    status &= ~(uint32_t)(1 << (idxInt+AIP_STATUS_SHIFT_MASK));
     734:	dc000015 	stw	r16,0(sp)

    aip_aipWrite((void *)aipBaseAddr, AIP_STATUS, &status, 1);
     738:	00004dc0 	call	4dc <aip_aipWrite>

    return 0;
}
     73c:	0005883a 	mov	r2,zero
     740:	dfc00517 	ldw	ra,20(sp)
     744:	dcc00417 	ldw	r19,16(sp)
     748:	dc800317 	ldw	r18,12(sp)
     74c:	dc400217 	ldw	r17,8(sp)
     750:	dc000117 	ldw	r16,4(sp)
     754:	dec00604 	addi	sp,sp,24
     758:	f800283a 	ret

0000075c <aip_clearINT>:
    aip_aipWrite((void *)aipBaseAddr, AIP_STATUS, &status, 1);

    return 0;
}*/
int8_t aip_clearINT (void *aipBaseAddr, uint8_t idxInt)
{
     75c:	defffe04 	addi	sp,sp,-8

    //aip_aipRead(aipBaseAddr, AIP_STATUS, &status, 1);

    //status = (status & (AIP_STATUS_MASK_NU | AIP_STATUS_MASK_MASK | AIP_STATUS_MASK_NOTIFICATION)) | (uint32_t)(1 << idxInt);

    status = ((0xffffffff));
     760:	00bfffc4 	movi	r2,-1

    aip_aipWrite(aipBaseAddr, AIP_STATUS, &status, 1);
     764:	01c00044 	movi	r7,1
     768:	d80d883a 	mov	r6,sp
     76c:	01400784 	movi	r5,30
    aip_aipWrite((void *)aipBaseAddr, AIP_STATUS, &status, 1);

    return 0;
}*/
int8_t aip_clearINT (void *aipBaseAddr, uint8_t idxInt)
{
     770:	dfc00115 	stw	ra,4(sp)

    //aip_aipRead(aipBaseAddr, AIP_STATUS, &status, 1);

    //status = (status & (AIP_STATUS_MASK_NU | AIP_STATUS_MASK_MASK | AIP_STATUS_MASK_NOTIFICATION)) | (uint32_t)(1 << idxInt);

    status = ((0xffffffff));
     774:	d8800015 	stw	r2,0(sp)

    aip_aipWrite(aipBaseAddr, AIP_STATUS, &status, 1);
     778:	00004dc0 	call	4dc <aip_aipWrite>

    return 0;
}
     77c:	0005883a 	mov	r2,zero
     780:	dfc00117 	ldw	ra,4(sp)
     784:	dec00204 	addi	sp,sp,8
     788:	f800283a 	ret

0000078c <aip_getINT>:
int8_t aip_getINT (void *aipBaseAddr, uint8_t* intVector)
{
     78c:	defffd04 	addi	sp,sp,-12
     790:	dc000115 	stw	r16,4(sp)
    uint32_t status = 0;

    aip_aipRead ((void *)aipBaseAddr, AIP_STATUS, &status, 1);
     794:	01c00044 	movi	r7,1
    aip_aipWrite(aipBaseAddr, AIP_STATUS, &status, 1);

    return 0;
}
int8_t aip_getINT (void *aipBaseAddr, uint8_t* intVector)
{
     798:	2821883a 	mov	r16,r5
    uint32_t status = 0;

    aip_aipRead ((void *)aipBaseAddr, AIP_STATUS, &status, 1);
     79c:	d80d883a 	mov	r6,sp
     7a0:	01400784 	movi	r5,30
    aip_aipWrite(aipBaseAddr, AIP_STATUS, &status, 1);

    return 0;
}
int8_t aip_getINT (void *aipBaseAddr, uint8_t* intVector)
{
     7a4:	dfc00215 	stw	ra,8(sp)
    uint32_t status = 0;
     7a8:	d8000015 	stw	zero,0(sp)

    aip_aipRead ((void *)aipBaseAddr, AIP_STATUS, &status, 1);
     7ac:	00004b40 	call	4b4 <aip_aipRead>

    *intVector = (uint8_t)(status & AIP_STATUS_MASK_INT);
     7b0:	d8800017 	ldw	r2,0(sp)
     7b4:	80800005 	stb	r2,0(r16)

    return 0;
}
     7b8:	0005883a 	mov	r2,zero
     7bc:	dfc00217 	ldw	ra,8(sp)
     7c0:	dc000117 	ldw	r16,4(sp)
     7c4:	dec00304 	addi	sp,sp,12
     7c8:	f800283a 	ret

000007cc <aip_getNotifications>:

int8_t aip_getNotifications(void *aipBaseAddr, uint8_t* notificationsVector)
{
     7cc:	defffd04 	addi	sp,sp,-12
     7d0:	dc000115 	stw	r16,4(sp)
    uint32_t status = 0;

    aip_aipRead ((void *)aipBaseAddr, AIP_STATUS, &status, 1);
     7d4:	01c00044 	movi	r7,1

    return 0;
}

int8_t aip_getNotifications(void *aipBaseAddr, uint8_t* notificationsVector)
{
     7d8:	2821883a 	mov	r16,r5
    uint32_t status = 0;

    aip_aipRead ((void *)aipBaseAddr, AIP_STATUS, &status, 1);
     7dc:	d80d883a 	mov	r6,sp
     7e0:	01400784 	movi	r5,30

    return 0;
}

int8_t aip_getNotifications(void *aipBaseAddr, uint8_t* notificationsVector)
{
     7e4:	dfc00215 	stw	ra,8(sp)
    uint32_t status = 0;
     7e8:	d8000015 	stw	zero,0(sp)

    aip_aipRead ((void *)aipBaseAddr, AIP_STATUS, &status, 1);
     7ec:	00004b40 	call	4b4 <aip_aipRead>

    *notificationsVector = (uint8_t)((status & AIP_STATUS_MASK_NOTIFICATION) >> AIP_STATUS_SHIFT_NOTIFICATION);

    return 0;
}
     7f0:	0005883a 	mov	r2,zero
{
    uint32_t status = 0;

    aip_aipRead ((void *)aipBaseAddr, AIP_STATUS, &status, 1);

    *notificationsVector = (uint8_t)((status & AIP_STATUS_MASK_NOTIFICATION) >> AIP_STATUS_SHIFT_NOTIFICATION);
     7f4:	80000005 	stb	zero,0(r16)

    return 0;
}
     7f8:	dfc00217 	ldw	ra,8(sp)
     7fc:	dc000117 	ldw	r16,4(sp)
     800:	dec00304 	addi	sp,sp,12
     804:	f800283a 	ret

00000808 <int_isr>:
        (void *) INT_IP_S0_BASE,
        0x00);

}

void int_isr(void * context) {
     808:	defffa04 	addi	sp,sp,-24
     80c:	dcc00315 	stw	r19,12(sp)
    alt_u32 base = (alt_u32)context;

    alt_u32 edge_status = IORD_ALTERA_AVALON_PIO_EDGE_CAP(base);
     810:	24c00304 	addi	r19,r4,12
        (void *) INT_IP_S0_BASE,
        0x00);

}

void int_isr(void * context) {
     814:	dfc00515 	stw	ra,20(sp)
     818:	dd000415 	stw	r20,16(sp)
     81c:	dc800215 	stw	r18,8(sp)
     820:	dc400115 	stw	r17,4(sp)
     824:	dc000015 	stw	r16,0(sp)
    alt_u32 base = (alt_u32)context;

    alt_u32 edge_status = IORD_ALTERA_AVALON_PIO_EDGE_CAP(base);
     828:	9c800037 	ldwio	r18,0(r19)

    if(edge_status) {
     82c:	90001126 	beq	r18,zero,874 <int_isr+0x6c>
        start_state = 1;

        printf("INT DETECTED!\n");
     830:	010000f4 	movhi	r4,3
    alt_u32 base = (alt_u32)context;

    alt_u32 edge_status = IORD_ALTERA_AVALON_PIO_EDGE_CAP(base);

    if(edge_status) {
        start_state = 1;
     834:	04400044 	movi	r17,1

        printf("INT DETECTED!\n");
     838:	21231404 	addi	r4,r4,-29616
    alt_u32 base = (alt_u32)context;

    alt_u32 edge_status = IORD_ALTERA_AVALON_PIO_EDGE_CAP(base);

    if(edge_status) {
        start_state = 1;
     83c:	d4624d15 	stw	r17,-30412(gp)

        printf("INT DETECTED!\n");

        for(int i = 0; i < 32; i++) {
     840:	0021883a 	mov	r16,zero
    alt_u32 edge_status = IORD_ALTERA_AVALON_PIO_EDGE_CAP(base);

    if(edge_status) {
        start_state = 1;

        printf("INT DETECTED!\n");
     844:	0012c980 	call	12c98 <puts>

        for(int i = 0; i < 32; i++) {
     848:	05000804 	movi	r20,32
            if(edge_status & (1 << i)) {
     84c:	8c04983a 	sll	r2,r17,r16
     850:	1484703a 	and	r2,r2,r18
     854:	10000426 	beq	r2,zero,868 <int_isr+0x60>
                printf("Line %d activated!\n", i);
     858:	010000f4 	movhi	r4,3
     85c:	800b883a 	mov	r5,r16
     860:	21231804 	addi	r4,r4,-29600
     864:	0012b7c0 	call	12b7c <printf>
    if(edge_status) {
        start_state = 1;

        printf("INT DETECTED!\n");

        for(int i = 0; i < 32; i++) {
     868:	84000044 	addi	r16,r16,1
     86c:	853ff71e 	bne	r16,r20,84c <__alt_data_end+0xfffc204c>
            if(edge_status & (1 << i)) {
                printf("Line %d activated!\n", i);
            }
        }
        IOWR_ALTERA_AVALON_PIO_EDGE_CAP(base, edge_status);
     870:	9c800035 	stwio	r18,0(r19)
    }
}
     874:	dfc00517 	ldw	ra,20(sp)
     878:	dd000417 	ldw	r20,16(sp)
     87c:	dcc00317 	ldw	r19,12(sp)
     880:	dc800217 	ldw	r18,8(sp)
     884:	dc400117 	ldw	r17,4(sp)
     888:	dc000017 	ldw	r16,0(sp)
     88c:	dec00604 	addi	sp,sp,24
     890:	f800283a 	ret

00000894 <start_isr>:
void start_isr(void * context){

		volatile int * edge_ptr;
		edge_ptr = (volatile int *) context;

		*edge_ptr = IORD_ALTERA_AVALON_PIO_EDGE_CAP(START_UP_BASE);
     894:	00800134 	movhi	r2,4
     898:	10982b04 	addi	r2,r2,24748
     89c:	10c00037 	ldwio	r3,0(r2)
     8a0:	20c00015 	stw	r3,0(r4)

		IOWR_ALTERA_AVALON_PIO_EDGE_CAP(START_UP_BASE, 0);
     8a4:	10000035 	stwio	zero,0(r2)

#ifdef 	PRINTF
		printf("------------start DETECTED ------------ \n");
#endif
		start_state=1;
     8a8:	00800044 	movi	r2,1
     8ac:	d0a24d15 	stw	r2,-30412(gp)
     8b0:	f800283a 	ret

000008b4 <int_setup>:

    return 0;
}


void int_setup(void) {
     8b4:	defffe04 	addi	sp,sp,-8
    IOWR_ALTERA_AVALON_PIO_IRQ_MASK(INT_IP_S0_BASE, 0x07);
     8b8:	00800134 	movhi	r2,4

    return 0;
}


void int_setup(void) {
     8bc:	dfc00115 	stw	ra,4(sp)
    IOWR_ALTERA_AVALON_PIO_IRQ_MASK(INT_IP_S0_BASE, 0x07);
     8c0:	10982604 	addi	r2,r2,24728
     8c4:	00c001c4 	movi	r3,7
     8c8:	10c00035 	stwio	r3,0(r2)
    IOWR_ALTERA_AVALON_PIO_EDGE_CAP(INT_IP_S0_BASE, 0x00);
     8cc:	00800134 	movhi	r2,4
     8d0:	10982704 	addi	r2,r2,24732
     8d4:	10000035 	stwio	zero,0(r2)

    alt_ic_isr_register(
     8d8:	01c00134 	movhi	r7,4
     8dc:	01800034 	movhi	r6,0
     8e0:	d8000015 	stw	zero,0(sp)
     8e4:	39d82404 	addi	r7,r7,24720
     8e8:	31820204 	addi	r6,r6,2056
     8ec:	014000c4 	movi	r5,3
     8f0:	0009883a 	mov	r4,zero
     8f4:	00286800 	call	28680 <alt_ic_isr_register>
        INT_IP_S0_IRQ,
		int_isr,
        (void *) INT_IP_S0_BASE,
        0x00);

}
     8f8:	dfc00117 	ldw	ra,4(sp)
     8fc:	dec00204 	addi	sp,sp,8
     900:	f800283a 	ret

00000904 <start_setup>:
    }
}



void start_setup(void){
     904:	defffe04 	addi	sp,sp,-8

		IOWR_ALTERA_AVALON_PIO_IRQ_MASK(START_UP_BASE, 0x01);
     908:	00800134 	movhi	r2,4
    }
}



void start_setup(void){
     90c:	dfc00115 	stw	ra,4(sp)

		IOWR_ALTERA_AVALON_PIO_IRQ_MASK(START_UP_BASE, 0x01);
     910:	01400044 	movi	r5,1
     914:	10982a04 	addi	r2,r2,24744
     918:	11400035 	stwio	r5,0(r2)
		IOWR_ALTERA_AVALON_PIO_EDGE_CAP(START_UP_BASE, 0x00);
     91c:	00800134 	movhi	r2,4
     920:	10982b04 	addi	r2,r2,24748
     924:	10000035 	stwio	zero,0(r2)
		void * edge_val_ptr;
		edge_val_ptr = (void *) &edge_val;

		alt_ic_isr_register(
     928:	01800034 	movhi	r6,0
     92c:	d8000015 	stw	zero,0(sp)
     930:	d1e24e04 	addi	r7,gp,-30408
     934:	31822504 	addi	r6,r6,2196
     938:	0009883a 	mov	r4,zero
     93c:	00286800 	call	28680 <alt_ic_isr_register>
				START_UP_IRQ_INTERRUPT_CONTROLLER_ID,
				START_UP_IRQ,
				start_isr,
				edge_val_ptr,
				0x00);
}
     940:	dfc00117 	ldw	ra,4(sp)
     944:	dec00204 	addi	sp,sp,8
     948:	f800283a 	ret

0000094c <main>:
void int_setup();
void start_setup();


int main(void)
{
     94c:	defff004 	addi	sp,sp,-64
     950:	dfc00f15 	stw	ra,60(sp)
     954:	dc000c15 	stw	r16,48(sp)
     958:	dc800e15 	stw	r18,56(sp)
     95c:	dc400d15 	stw	r17,52(sp)

	start_state = 0;
     960:	d0224d15 	stw	zero,-30412(gp)

    uint32_t data[4];



    int_setup();
     964:	00008b40 	call	8b4 <int_setup>
    start_setup();
     968:	00009040 	call	904 <start_setup>

    ID00001001_init(DUMMY_0);
     96c:	01000134 	movhi	r4,4
     970:	21140004 	addi	r4,r4,20480
     974:	00001bc0 	call	1bc <ID00001001_init>
    ID00001001_init(DUMMY_1);
     978:	01000134 	movhi	r4,4
     97c:	21160004 	addi	r4,r4,22528
     980:	00001bc0 	call	1bc <ID00001001_init>
    ID00001001_init(DUMMY_2);
     984:	01000134 	movhi	r4,4
     988:	21150004 	addi	r4,r4,21504
     98c:	00001bc0 	call	1bc <ID00001001_init>
    {
        printf("Data[%i]: %x ", i, dataFlits[i]);
    }
    printf("\n");*/

    LMS7002M_t *lms = LMS7002M_create(spidev_interface_transact);
     990:	01000074 	movhi	r4,1
     994:	21391a04 	addi	r4,r4,-7064
     998:	00062380 	call	6238 <LMS7002M_create>
    LMS7002M_reset(lms);
     99c:	1009883a 	mov	r4,r2
    {
        printf("Data[%i]: %x ", i, dataFlits[i]);
    }
    printf("\n");*/

    LMS7002M_t *lms = LMS7002M_create(spidev_interface_transact);
     9a0:	1021883a 	mov	r16,r2
    LMS7002M_reset(lms);
     9a4:	00091b40 	call	91b4 <LMS7002M_reset>
    LMS7002M_set_spi_mode(lms, 4); //set 4-wire spi before reading back
     9a8:	8009883a 	mov	r4,r16
     9ac:	01400104 	movi	r5,4
     9b0:	00091500 	call	9150 <LMS7002M_set_spi_mode>
	uint32_t parameter_1;
	uint32_t parameter_2;
	uint32_t parameter_3;
	uint32_t parameter_4;

    printf("Waiting to start\n");
     9b4:	010000f4 	movhi	r4,3
     9b8:	21231d04 	addi	r4,r4,-29580
     9bc:	0012c980 	call	12c98 <puts>
	while(1){
		if(start_state != 0){
     9c0:	d0a24d17 	ldw	r2,-30412(gp)
     9c4:	103ffe26 	beq	r2,zero,9c0 <__alt_data_end+0xfffc21c0>

				ID00004003_readData(AIP_UP_0_BASE, data, 4,0);
     9c8:	01000134 	movhi	r4,4
     9cc:	000f883a 	mov	r7,zero
     9d0:	01800104 	movi	r6,4
     9d4:	d9400804 	addi	r5,sp,32
     9d8:	21170004 	addi	r4,r4,23552
     9dc:	00004300 	call	430 <ID00004003_readData>
			    opcode = data[0];
     9e0:	dc000817 	ldw	r16,32(sp)
			    parameter_1 = data[1];
			    parameter_2 = data[2];

				printf("\n The opcode in memory[0]: %lx\n", data[0]);
     9e4:	010000f4 	movhi	r4,3
     9e8:	21232204 	addi	r4,r4,-29560
     9ec:	800b883a 	mov	r5,r16
	while(1){
		if(start_state != 0){

				ID00004003_readData(AIP_UP_0_BASE, data, 4,0);
			    opcode = data[0];
			    parameter_1 = data[1];
     9f0:	dc400917 	ldw	r17,36(sp)
			    parameter_2 = data[2];
     9f4:	dc800a17 	ldw	r18,40(sp)

				printf("\n The opcode in memory[0]: %lx\n", data[0]);
     9f8:	0012b7c0 	call	12b7c <printf>
				printf("\n The data in memory[1]: %lx\n", data[1]);
     9fc:	d9400917 	ldw	r5,36(sp)
     a00:	010000f4 	movhi	r4,3
     a04:	21232a04 	addi	r4,r4,-29528
     a08:	0012b7c0 	call	12b7c <printf>
				printf("\n The data in memory[2]: %lx\n", data[2]);
     a0c:	d9400a17 	ldw	r5,40(sp)
     a10:	010000f4 	movhi	r4,3
     a14:	21233204 	addi	r4,r4,-29496
     a18:	0012b7c0 	call	12b7c <printf>

				switch(opcode){
     a1c:	00800044 	movi	r2,1
     a20:	80801326 	beq	r16,r2,a70 <main+0x124>
     a24:	80000e26 	beq	r16,zero,a60 <main+0x114>
     a28:	00800084 	movi	r2,2
     a2c:	8080341e 	bne	r16,r2,b00 <main+0x1b4>
				        printf("Data[%i]: %x ", i, dataFlits[i]);
				    }
				    printf("\n");
						break;
					case 2:
						 ID00001001_readData(DUMMY_1, dataFlits, DUMMY_MEM_SIZE, 0);
     a30:	01000134 	movhi	r4,4
     a34:	000f883a 	mov	r7,zero
     a38:	01800204 	movi	r6,8
     a3c:	d80b883a 	mov	r5,sp
     a40:	21160004 	addi	r4,r4,22528
     a44:	000031c0 	call	31c <ID00001001_readData>

						    printf("Data in Dummy 1:\n");
     a48:	010000f4 	movhi	r4,3
     a4c:	21234304 	addi	r4,r4,-29428
     a50:	0012c980 	call	12c98 <puts>

						    for (uint32_t i = 0; i < DUMMY_MEM_SIZE; i++)
     a54:	0021883a 	mov	r16,zero
     a58:	04400204 	movi	r17,8
     a5c:	00001c06 	br	ad0 <main+0x184>
				printf("\n The opcode in memory[0]: %lx\n", data[0]);
				printf("\n The data in memory[1]: %lx\n", data[1]);
				printf("\n The data in memory[2]: %lx\n", data[2]);

				switch(opcode){
					case 0: spidev_interface_transact(parameter_1, parameter_2);
     a60:	900ac03a 	cmpne	r5,r18,zero
     a64:	8809883a 	mov	r4,r17
     a68:	000e4680 	call	e468 <spidev_interface_transact>
						break;
     a6c:	00002706 	br	b0c <main+0x1c0>
					case 1:
					ID00001001_readData(DUMMY_0, dataFlits, DUMMY_MEM_SIZE, 0);
     a70:	01000134 	movhi	r4,4
     a74:	000f883a 	mov	r7,zero
     a78:	01800204 	movi	r6,8
     a7c:	d80b883a 	mov	r5,sp
     a80:	21140004 	addi	r4,r4,20480
     a84:	000031c0 	call	31c <ID00001001_readData>

				    printf("Data in Dummy 0:\n");
     a88:	010000f4 	movhi	r4,3
     a8c:	21233a04 	addi	r4,r4,-29464
     a90:	0012c980 	call	12c98 <puts>

				    for (uint32_t i = 0; i < DUMMY_MEM_SIZE; i++)
     a94:	0021883a 	mov	r16,zero
     a98:	04400204 	movi	r17,8
				    {
				        printf("Data[%i]: %x ", i, dataFlits[i]);
     a9c:	8405883a 	add	r2,r16,r16
     aa0:	1085883a 	add	r2,r2,r2
     aa4:	d885883a 	add	r2,sp,r2
     aa8:	11800017 	ldw	r6,0(r2)
     aac:	010000f4 	movhi	r4,3
     ab0:	800b883a 	mov	r5,r16
     ab4:	21233f04 	addi	r4,r4,-29444
					case 1:
					ID00001001_readData(DUMMY_0, dataFlits, DUMMY_MEM_SIZE, 0);

				    printf("Data in Dummy 0:\n");

				    for (uint32_t i = 0; i < DUMMY_MEM_SIZE; i++)
     ab8:	84000044 	addi	r16,r16,1
				    {
				        printf("Data[%i]: %x ", i, dataFlits[i]);
     abc:	0012b7c0 	call	12b7c <printf>
					case 1:
					ID00001001_readData(DUMMY_0, dataFlits, DUMMY_MEM_SIZE, 0);

				    printf("Data in Dummy 0:\n");

				    for (uint32_t i = 0; i < DUMMY_MEM_SIZE; i++)
     ac0:	847ff61e 	bne	r16,r17,a9c <__alt_data_end+0xfffc229c>
				    {
				        printf("Data[%i]: %x ", i, dataFlits[i]);
				    }
				    printf("\n");
     ac4:	01000284 	movi	r4,10
     ac8:	0012bc00 	call	12bc0 <putchar>
						break;
     acc:	00000f06 	br	b0c <main+0x1c0>

						    printf("Data in Dummy 1:\n");

						    for (uint32_t i = 0; i < DUMMY_MEM_SIZE; i++)
						    {
						        printf("Data[%i]: %x ", i, dataFlits[i]);
     ad0:	8405883a 	add	r2,r16,r16
     ad4:	1085883a 	add	r2,r2,r2
     ad8:	d885883a 	add	r2,sp,r2
     adc:	11800017 	ldw	r6,0(r2)
     ae0:	010000f4 	movhi	r4,3
     ae4:	800b883a 	mov	r5,r16
     ae8:	21233f04 	addi	r4,r4,-29444
					case 2:
						 ID00001001_readData(DUMMY_1, dataFlits, DUMMY_MEM_SIZE, 0);

						    printf("Data in Dummy 1:\n");

						    for (uint32_t i = 0; i < DUMMY_MEM_SIZE; i++)
     aec:	84000044 	addi	r16,r16,1
						    {
						        printf("Data[%i]: %x ", i, dataFlits[i]);
     af0:	0012b7c0 	call	12b7c <printf>
					case 2:
						 ID00001001_readData(DUMMY_1, dataFlits, DUMMY_MEM_SIZE, 0);

						    printf("Data in Dummy 1:\n");

						    for (uint32_t i = 0; i < DUMMY_MEM_SIZE; i++)
     af4:	847ff61e 	bne	r16,r17,ad0 <__alt_data_end+0xfffc22d0>
						    {
						        printf("Data[%i]: %x ", i, dataFlits[i]);
						    }
						    printf("\n");
     af8:	01000284 	movi	r4,10
     afc:	0012bc00 	call	12bc0 <putchar>
					default: printf("\n Valor no valido\n");
     b00:	010000f4 	movhi	r4,3
     b04:	21234804 	addi	r4,r4,-29408
     b08:	0012c980 	call	12c98 <puts>

				};
				//spidev_interface_transact(0xA1A10000, 1);
				//LMS7002M_set_nco_freq(NULL, 0, 0, 0.0);

		   start_state = 0;
     b0c:	d0224d15 	stw	zero,-30412(gp)
     b10:	003fab06 	br	9c0 <__alt_data_end+0xfffc21c0>

00000b14 <spi_read>:

int32_t spi_read(uint8_t *data, uint8_t bytes_number) {
	uint32_t cnt = 0;

	/* Enable Slave Select mask. */
	IOWR_ALTERA_AVALON_SPI_SLAVE_SEL(SPI_0_BASE, 1);
     b14:	00800134 	movhi	r2,4
     b18:	10981504 	addi	r2,r2,24660
     b1c:	00c00044 	movi	r3,1
     b20:	10c00035 	stwio	r3,0(r2)
	/* Set the SSO bit (force chip select). */
	IOWR_ALTERA_AVALON_SPI_CONTROL(SPI_0_BASE,ALTERA_AVALON_SPI_CONTROL_SSO_MSK);
     b24:	00c00134 	movhi	r3,4
     b28:	18d81304 	addi	r3,r3,24652
     b2c:	00810004 	movi	r2,1024
     b30:	18800035 	stwio	r2,0(r3)
	/* Discard any stale data, in case previous communication was interrupted. */
	IORD_ALTERA_AVALON_SPI_RXDATA(SPI_0_BASE);
     b34:	01800134 	movhi	r6,4
     b38:	31981004 	addi	r6,r6,24640
     b3c:	30800037 	ldwio	r2,0(r6)
     b40:	02000134 	movhi	r8,4
		/* Wait until txdata register is empty. */
		while ((IORD_ALTERA_AVALON_SPI_STATUS(SPI_0_BASE)
				& ALTERA_AVALON_SPI_STATUS_TRDY_MSK) == 0)
			;
		/* Write data to txdata register. */
		IOWR_ALTERA_AVALON_SPI_TXDATA(SPI_0_BASE, data[cnt]);
     b44:	02800134 	movhi	r10,4
	/* Set the SSO bit (force chip select). */
	IOWR_ALTERA_AVALON_SPI_CONTROL(SPI_0_BASE,ALTERA_AVALON_SPI_CONTROL_SSO_MSK);
	/* Discard any stale data, in case previous communication was interrupted. */
	IORD_ALTERA_AVALON_SPI_RXDATA(SPI_0_BASE);

	while (cnt < bytes_number) {
     b48:	2005883a 	mov	r2,r4
     b4c:	29403fcc 	andi	r5,r5,255
     b50:	42181204 	addi	r8,r8,24648
		/* Wait until txdata register is empty. */
		while ((IORD_ALTERA_AVALON_SPI_STATUS(SPI_0_BASE)
				& ALTERA_AVALON_SPI_STATUS_TRDY_MSK) == 0)
			;
		/* Write data to txdata register. */
		IOWR_ALTERA_AVALON_SPI_TXDATA(SPI_0_BASE, data[cnt]);
     b54:	52981104 	addi	r10,r10,24644
     b58:	02400134 	movhi	r9,4
	/* Set the SSO bit (force chip select). */
	IOWR_ALTERA_AVALON_SPI_CONTROL(SPI_0_BASE,ALTERA_AVALON_SPI_CONTROL_SSO_MSK);
	/* Discard any stale data, in case previous communication was interrupted. */
	IORD_ALTERA_AVALON_SPI_RXDATA(SPI_0_BASE);

	while (cnt < bytes_number) {
     b5c:	110fc83a 	sub	r7,r2,r4
     b60:	4a581204 	addi	r9,r9,24648
     b64:	39400c2e 	bgeu	r7,r5,b98 <spi_read+0x84>
		/* Wait until txdata register is empty. */
		while ((IORD_ALTERA_AVALON_SPI_STATUS(SPI_0_BASE)
     b68:	41c00037 	ldwio	r7,0(r8)
     b6c:	39c0100c 	andi	r7,r7,64
     b70:	383ffd26 	beq	r7,zero,b68 <__alt_data_end+0xfffc2368>
				& ALTERA_AVALON_SPI_STATUS_TRDY_MSK) == 0)
			;
		/* Write data to txdata register. */
		IOWR_ALTERA_AVALON_SPI_TXDATA(SPI_0_BASE, data[cnt]);
     b74:	11c00003 	ldbu	r7,0(r2)
     b78:	51c00035 	stwio	r7,0(r10)
		/* Wait until rxdata register is full. */
		while ((IORD_ALTERA_AVALON_SPI_STATUS(SPI_0_BASE)
     b7c:	41c00037 	ldwio	r7,0(r8)
     b80:	39c0200c 	andi	r7,r7,128
     b84:	383ffd26 	beq	r7,zero,b7c <__alt_data_end+0xfffc237c>
				& ALTERA_AVALON_SPI_STATUS_RRDY_MSK) == 0)
			;
		/* Read data from rxdata register. */
		data[cnt] = IORD_ALTERA_AVALON_SPI_RXDATA(SPI_0_BASE);
     b88:	31c00037 	ldwio	r7,0(r6)
     b8c:	11c00005 	stb	r7,0(r2)
     b90:	10800044 	addi	r2,r2,1
     b94:	003ff006 	br	b58 <__alt_data_end+0xfffc2358>
		cnt++;
	}

	/* Wait until the interface has finished transmitting. */
	while ((IORD_ALTERA_AVALON_SPI_STATUS(SPI_0_BASE)
     b98:	48800037 	ldwio	r2,0(r9)
     b9c:	1080080c 	andi	r2,r2,32
     ba0:	103ffd26 	beq	r2,zero,b98 <__alt_data_end+0xfffc2398>
			& ALTERA_AVALON_SPI_STATUS_TMT_MSK) == 0)
		;
	/* Clear the SSO bit (release chip select). */
	IOWR_ALTERA_AVALON_SPI_CONTROL(SPI_0_BASE, 0);
     ba4:	18000035 	stwio	zero,0(r3)

	return 0;
}
     ba8:	0005883a 	mov	r2,zero
     bac:	f800283a 	ret

00000bb0 <spi_write_then_read>:



int spi_write_then_read(struct spi_device *spi, const unsigned char *txbuf,
		unsigned n_tx, unsigned char *rxbuf, unsigned n_rx) {
     bb0:	defff704 	addi	sp,sp,-36
     bb4:	dc400615 	stw	r17,24(sp)
     bb8:	dc000515 	stw	r16,20(sp)
     bbc:	2823883a 	mov	r17,r5
     bc0:	3021883a 	mov	r16,r6
	uint8_t buffer[20] = { 0x00, 0x00, 0x00, 0x00, 0x00, 0x00, 0x00, 0x00, 0x00,
     bc4:	000b883a 	mov	r5,zero
     bc8:	01800504 	movi	r6,20
     bcc:	d809883a 	mov	r4,sp
}



int spi_write_then_read(struct spi_device *spi, const unsigned char *txbuf,
		unsigned n_tx, unsigned char *rxbuf, unsigned n_rx) {
     bd0:	dc800715 	stw	r18,28(sp)
     bd4:	dfc00815 	stw	ra,32(sp)
     bd8:	3825883a 	mov	r18,r7
	uint8_t buffer[20] = { 0x00, 0x00, 0x00, 0x00, 0x00, 0x00, 0x00, 0x00, 0x00,
     bdc:	00129c40 	call	129c4 <memset>
			0x00, 0x00, 0x00, 0x00, 0x00, 0x00, 0x00, 0x00, 0x00, 0x00, 0x00 };
	uint8_t byte;

	for (byte = 0; byte < n_tx; byte++) {
     be0:	0007883a 	mov	r3,zero
     be4:	18803fcc 	andi	r2,r3,255
     be8:	1400062e 	bgeu	r2,r16,c04 <spi_write_then_read+0x54>
		buffer[byte] = (unsigned char) txbuf[byte];
     bec:	d889883a 	add	r4,sp,r2
     bf0:	8885883a 	add	r2,r17,r2
     bf4:	10800003 	ldbu	r2,0(r2)
		unsigned n_tx, unsigned char *rxbuf, unsigned n_rx) {
	uint8_t buffer[20] = { 0x00, 0x00, 0x00, 0x00, 0x00, 0x00, 0x00, 0x00, 0x00,
			0x00, 0x00, 0x00, 0x00, 0x00, 0x00, 0x00, 0x00, 0x00, 0x00, 0x00 };
	uint8_t byte;

	for (byte = 0; byte < n_tx; byte++) {
     bf8:	18c00044 	addi	r3,r3,1
		buffer[byte] = (unsigned char) txbuf[byte];
     bfc:	20800005 	stb	r2,0(r4)
     c00:	003ff806 	br	be4 <__alt_data_end+0xfffc23e4>
	}
	spi_read(buffer, n_tx + n_rx);
     c04:	d8800917 	ldw	r2,36(sp)
     c08:	8023883a 	mov	r17,r16
     c0c:	d809883a 	mov	r4,sp
     c10:	80a1883a 	add	r16,r16,r2
     c14:	81403fcc 	andi	r5,r16,255
     c18:	0000b140 	call	b14 <spi_read>
	for (byte = n_tx; byte < n_tx + n_rx; byte++) {
     c1c:	88803fcc 	andi	r2,r17,255
     c20:	1400062e 	bgeu	r2,r16,c3c <spi_write_then_read+0x8c>
	//	rxbuf[byte - n_tx] = buffer[byte];
		rxbuf[byte] = buffer[byte];
     c24:	9087883a 	add	r3,r18,r2
     c28:	d885883a 	add	r2,sp,r2
     c2c:	10800003 	ldbu	r2,0(r2)

	for (byte = 0; byte < n_tx; byte++) {
		buffer[byte] = (unsigned char) txbuf[byte];
	}
	spi_read(buffer, n_tx + n_rx);
	for (byte = n_tx; byte < n_tx + n_rx; byte++) {
     c30:	8c400044 	addi	r17,r17,1
	//	rxbuf[byte - n_tx] = buffer[byte];
		rxbuf[byte] = buffer[byte];
     c34:	18800005 	stb	r2,0(r3)
     c38:	003ff806 	br	c1c <__alt_data_end+0xfffc241c>
	}
	

	return 0;
}
     c3c:	0005883a 	mov	r2,zero
     c40:	dfc00817 	ldw	ra,32(sp)
     c44:	dc800717 	ldw	r18,28(sp)
     c48:	dc400617 	ldw	r17,24(sp)
     c4c:	dc000517 	ldw	r16,20(sp)
     c50:	dec00904 	addi	sp,sp,36
     c54:	f800283a 	ret

00000c58 <LMS7002M_afe_enable>:

#include <stdlib.h>
#include "LMS7002M_impl.h"

void LMS7002M_afe_enable(LMS7002M_t *self, const LMS7002M_dir_t direction, const LMS7002M_chan_t channel, const bool enable)
{
     c58:	defffb04 	addi	sp,sp,-20
     c5c:	dcc00315 	stw	r19,12(sp)
     c60:	dc800215 	stw	r18,8(sp)
     c64:	dc000015 	stw	r16,0(sp)
     c68:	dfc00415 	stw	ra,16(sp)
     c6c:	dc400115 	stw	r17,4(sp)
    //support using LMS_CHAB to set both ADCs or DACs
    if (channel == LMS_CHAB)
     c70:	008010c4 	movi	r2,67

#include <stdlib.h>
#include "LMS7002M_impl.h"

void LMS7002M_afe_enable(LMS7002M_t *self, const LMS7002M_dir_t direction, const LMS7002M_chan_t channel, const bool enable)
{
     c74:	2025883a 	mov	r18,r4
     c78:	2827883a 	mov	r19,r5
     c7c:	3821883a 	mov	r16,r7
    //support using LMS_CHAB to set both ADCs or DACs
    if (channel == LMS_CHAB)
     c80:	30800f1e 	bne	r6,r2,cc0 <LMS7002M_afe_enable+0x68>
    {
        LMS7002M_afe_enable(self, direction, LMS_CHA, enable);
     c84:	3c003fcc 	andi	r16,r7,255
     c88:	800f883a 	mov	r7,r16
     c8c:	01801044 	movi	r6,65
     c90:	0000c580 	call	c58 <LMS7002M_afe_enable>
        LMS7002M_afe_enable(self, direction, LMS_CHB, enable);
     c94:	800f883a 	mov	r7,r16
     c98:	01801084 	movi	r6,66
     c9c:	980b883a 	mov	r5,r19
     ca0:	9009883a 	mov	r4,r18
    if (direction == LMS_TX && channel == LMS_CHB) self->regs->reg_0x0082_pd_tx_afe2 = enable?0:1;
    if (direction == LMS_RX && channel == LMS_CHA) self->regs->reg_0x0082_pd_rx_afe1 = enable?0:1;
    if (direction == LMS_RX && channel == LMS_CHB) self->regs->reg_0x0082_pd_rx_afe2 = enable?0:1;

    LMS7002M_regs_spi_write(self, 0x0082);
}
     ca4:	dfc00417 	ldw	ra,16(sp)
     ca8:	dcc00317 	ldw	r19,12(sp)
     cac:	dc800217 	ldw	r18,8(sp)
     cb0:	dc400117 	ldw	r17,4(sp)
     cb4:	dc000017 	ldw	r16,0(sp)
     cb8:	dec00504 	addi	sp,sp,20
{
    //support using LMS_CHAB to set both ADCs or DACs
    if (channel == LMS_CHAB)
    {
        LMS7002M_afe_enable(self, direction, LMS_CHA, enable);
        LMS7002M_afe_enable(self, direction, LMS_CHB, enable);
     cbc:	0000c581 	jmpi	c58 <LMS7002M_afe_enable>
        return;
    }

    //AFE is a global register space
    LMS7002M_set_mac_ch(self, LMS_CHAB);
     cc0:	100b883a 	mov	r5,r2
     cc4:	3023883a 	mov	r17,r6
     cc8:	00090c00 	call	90c0 <LMS7002M_set_mac_ch>

    //always individual enables and both ADCs
    self->regs->reg_0x0082_en_g_afe = 1;
     ccc:	90846917 	ldw	r2,4516(r18)
     cd0:	00c00044 	movi	r3,1
     cd4:	10c06915 	stw	r3,420(r2)
    self->regs->reg_0x0082_mode_interleave_afe = REG_0X0082_MODE_INTERLEAVE_AFE_2ADCS;
     cd8:	10006115 	stw	zero,388(r2)
    self->regs->reg_0x0082_pd_afe = 0;
     cdc:	10006415 	stw	zero,400(r2)

    //conditional power downs
    if (direction == LMS_TX && channel == LMS_CHA) self->regs->reg_0x0082_pd_tx_afe1 = enable?0:1;
     ce0:	98c0061e 	bne	r19,r3,cfc <LMS7002M_afe_enable+0xa4>
     ce4:	00c01044 	movi	r3,65
     ce8:	88c00c1e 	bne	r17,r3,d1c <LMS7002M_afe_enable+0xc4>
     cec:	8400005c 	xori	r16,r16,1
     cf0:	84003fcc 	andi	r16,r16,255
     cf4:	14006715 	stw	r16,412(r2)
     cf8:	00000d06 	br	d30 <LMS7002M_afe_enable+0xd8>
    if (direction == LMS_TX && channel == LMS_CHB) self->regs->reg_0x0082_pd_tx_afe2 = enable?0:1;
    if (direction == LMS_RX && channel == LMS_CHA) self->regs->reg_0x0082_pd_rx_afe1 = enable?0:1;
     cfc:	00c00084 	movi	r3,2
     d00:	98c00b1e 	bne	r19,r3,d30 <LMS7002M_afe_enable+0xd8>
     d04:	00c01044 	movi	r3,65
     d08:	88c0121e 	bne	r17,r3,d54 <LMS7002M_afe_enable+0xfc>
     d0c:	8400005c 	xori	r16,r16,1
     d10:	84003fcc 	andi	r16,r16,255
     d14:	14006515 	stw	r16,404(r2)
     d18:	00000506 	br	d30 <LMS7002M_afe_enable+0xd8>
    self->regs->reg_0x0082_mode_interleave_afe = REG_0X0082_MODE_INTERLEAVE_AFE_2ADCS;
    self->regs->reg_0x0082_pd_afe = 0;

    //conditional power downs
    if (direction == LMS_TX && channel == LMS_CHA) self->regs->reg_0x0082_pd_tx_afe1 = enable?0:1;
    if (direction == LMS_TX && channel == LMS_CHB) self->regs->reg_0x0082_pd_tx_afe2 = enable?0:1;
     d1c:	00c01084 	movi	r3,66
     d20:	88c0031e 	bne	r17,r3,d30 <LMS7002M_afe_enable+0xd8>
     d24:	8400005c 	xori	r16,r16,1
     d28:	84003fcc 	andi	r16,r16,255
     d2c:	14006815 	stw	r16,416(r2)
    if (direction == LMS_RX && channel == LMS_CHA) self->regs->reg_0x0082_pd_rx_afe1 = enable?0:1;
    if (direction == LMS_RX && channel == LMS_CHB) self->regs->reg_0x0082_pd_rx_afe2 = enable?0:1;

    LMS7002M_regs_spi_write(self, 0x0082);
     d30:	01402084 	movi	r5,130
     d34:	9009883a 	mov	r4,r18
}
     d38:	dfc00417 	ldw	ra,16(sp)
     d3c:	dcc00317 	ldw	r19,12(sp)
     d40:	dc800217 	ldw	r18,8(sp)
     d44:	dc400117 	ldw	r17,4(sp)
     d48:	dc000017 	ldw	r16,0(sp)
     d4c:	dec00504 	addi	sp,sp,20
    if (direction == LMS_TX && channel == LMS_CHA) self->regs->reg_0x0082_pd_tx_afe1 = enable?0:1;
    if (direction == LMS_TX && channel == LMS_CHB) self->regs->reg_0x0082_pd_tx_afe2 = enable?0:1;
    if (direction == LMS_RX && channel == LMS_CHA) self->regs->reg_0x0082_pd_rx_afe1 = enable?0:1;
    if (direction == LMS_RX && channel == LMS_CHB) self->regs->reg_0x0082_pd_rx_afe2 = enable?0:1;

    LMS7002M_regs_spi_write(self, 0x0082);
     d50:	00063001 	jmpi	6300 <LMS7002M_regs_spi_write>

    //conditional power downs
    if (direction == LMS_TX && channel == LMS_CHA) self->regs->reg_0x0082_pd_tx_afe1 = enable?0:1;
    if (direction == LMS_TX && channel == LMS_CHB) self->regs->reg_0x0082_pd_tx_afe2 = enable?0:1;
    if (direction == LMS_RX && channel == LMS_CHA) self->regs->reg_0x0082_pd_rx_afe1 = enable?0:1;
    if (direction == LMS_RX && channel == LMS_CHB) self->regs->reg_0x0082_pd_rx_afe2 = enable?0:1;
     d54:	00c01084 	movi	r3,66
     d58:	88fff51e 	bne	r17,r3,d30 <__alt_data_end+0xfffc2530>
     d5c:	8400005c 	xori	r16,r16,1
     d60:	84003fcc 	andi	r16,r16,255
     d64:	14006615 	stw	r16,408(r2)
     d68:	003ff106 	br	d30 <__alt_data_end+0xfffc2530>

00000d6c <LMS7002M_set_data_clock>:
#include "LMS7002M_impl.h"
#include "LMS7002M_vco.h"
#include <LMS7002M/LMS7002M_logger.h>

int LMS7002M_set_data_clock(LMS7002M_t *self, const double fref, const double fout, double *factual)
{
     d6c:	defff004 	addi	sp,sp,-64
     d70:	d8801017 	ldw	r2,64(sp)
     d74:	dc800715 	stw	r18,28(sp)
     d78:	2825883a 	mov	r18,r5
    //LMS7_logf(LMS7_INFO, "CGEN tune %f MHz (fref=%f MHz) begin", fout/1e6, fref/1e6);

    //always use the channel A shadow, CGEN is in global register space
    LMS7002M_set_mac_ch(self, LMS_CHA);
     d7c:	01401044 	movi	r5,65
#include "LMS7002M_impl.h"
#include "LMS7002M_vco.h"
#include <LMS7002M/LMS7002M_logger.h>

int LMS7002M_set_data_clock(LMS7002M_t *self, const double fref, const double fout, double *factual)
{
     d80:	df000d15 	stw	fp,52(sp)
     d84:	ddc00c15 	stw	r23,48(sp)
     d88:	dc400615 	stw	r17,24(sp)
     d8c:	dc000515 	stw	r16,20(sp)
     d90:	dfc00e15 	stw	ra,56(sp)
     d94:	dd800b15 	stw	r22,44(sp)
     d98:	dd400a15 	stw	r21,40(sp)
     d9c:	dd000915 	stw	r20,36(sp)
     da0:	dcc00815 	stw	r19,32(sp)
     da4:	202f883a 	mov	r23,r4
     da8:	3023883a 	mov	r17,r6
     dac:	d9c00f15 	stw	r7,60(sp)
     db0:	3839883a 	mov	fp,r7
     db4:	d8800415 	stw	r2,16(sp)

    //The equations:
    // fref * N = fvco
    // fvco / fdiv = fout
    // fref * N = fout * fdiv
    int fdiv = 512+2;
     db8:	04008084 	movi	r16,514
int LMS7002M_set_data_clock(LMS7002M_t *self, const double fref, const double fout, double *factual)
{
    //LMS7_logf(LMS7_INFO, "CGEN tune %f MHz (fref=%f MHz) begin", fout/1e6, fref/1e6);

    //always use the channel A shadow, CGEN is in global register space
    LMS7002M_set_mac_ch(self, LMS_CHA);
     dbc:	00090c00 	call	90c0 <LMS7002M_set_mac_ch>
   
    //calculation loop to find dividers that are possible
    while (true)
    {
        //try the next even divider
        fdiv -= 2;
     dc0:	843fff84 	addi	r16,r16,-2
        Ndiv = fout*fdiv/fref;
        fvco = fout*fdiv;
        //LMS7_logf(LMS7_TRACE, "Trying: fdiv = %d, Ndiv = %f, fvco = %f MHz", fdiv, Ndiv, fvco/1e6);

        //check dividers and vco in range...
        if (fdiv < 2) return -1;
     dc4:	8000ba26 	beq	r16,zero,10b0 <LMS7002M_set_data_clock+0x344>
    while (true)
    {
        //try the next even divider
        fdiv -= 2;

        Ndiv = fout*fdiv/fref;
     dc8:	8009883a 	mov	r4,r16
     dcc:	002815c0 	call	2815c <__floatsidf>
     dd0:	d9c00417 	ldw	r7,16(sp)
     dd4:	e00d883a 	mov	r6,fp
     dd8:	1009883a 	mov	r4,r2
     ddc:	180b883a 	mov	r5,r3
     de0:	d8800215 	stw	r2,8(sp)
     de4:	d8c00315 	stw	r3,12(sp)
     de8:	0026f740 	call	26f74 <__muldf3>
     dec:	900d883a 	mov	r6,r18
     df0:	880f883a 	mov	r7,r17
     df4:	1009883a 	mov	r4,r2
     df8:	180b883a 	mov	r5,r3
     dfc:	102d883a 	mov	r22,r2
     e00:	182b883a 	mov	r21,r3
     e04:	002634c0 	call	2634c <__divdf3>
        //LMS7_logf(LMS7_TRACE, "Trying: fdiv = %d, Ndiv = %f, fvco = %f MHz", fdiv, Ndiv, fvco/1e6);

        //check dividers and vco in range...
        if (fdiv < 2) return -1;
        if (fdiv > 512) continue;
        if (Ndiv < 4) return -1;
     e08:	000d883a 	mov	r6,zero
     e0c:	01d00434 	movhi	r7,16400
     e10:	1009883a 	mov	r4,r2
     e14:	180b883a 	mov	r5,r3
    while (true)
    {
        //try the next even divider
        fdiv -= 2;

        Ndiv = fout*fdiv/fref;
     e18:	1029883a 	mov	r20,r2
     e1c:	1827883a 	mov	r19,r3
        //LMS7_logf(LMS7_TRACE, "Trying: fdiv = %d, Ndiv = %f, fvco = %f MHz", fdiv, Ndiv, fvco/1e6);

        //check dividers and vco in range...
        if (fdiv < 2) return -1;
        if (fdiv > 512) continue;
        if (Ndiv < 4) return -1;
     e20:	0026e800 	call	26e80 <__ledf2>
     e24:	1000a216 	blt	r2,zero,10b0 <LMS7002M_set_data_clock+0x344>
        if (Ndiv > 512) continue;
     e28:	000d883a 	mov	r6,zero
     e2c:	01d02034 	movhi	r7,16512
     e30:	a009883a 	mov	r4,r20
     e34:	980b883a 	mov	r5,r19
     e38:	0026da40 	call	26da4 <__gedf2>
     e3c:	00bfe016 	blt	zero,r2,dc0 <__alt_data_end+0xfffc25c0>

        //check vco boundaries
        if (fvco < LMS7002M_CGEN_VCO_LO) continue;
     e40:	01d077b4 	movhi	r7,16862
     e44:	000d883a 	mov	r6,zero
     e48:	39f35944 	addi	r7,r7,-12955
     e4c:	b009883a 	mov	r4,r22
     e50:	a80b883a 	mov	r5,r21
     e54:	0026e800 	call	26e80 <__ledf2>
     e58:	103fd916 	blt	r2,zero,dc0 <__alt_data_end+0xfffc25c0>
        if (fvco > LMS7002M_CGEN_VCO_HI) continue;
     e5c:	01d07934 	movhi	r7,16868
     e60:	01980034 	movhi	r6,24576
     e64:	39c775c4 	addi	r7,r7,7639
     e68:	b009883a 	mov	r4,r22
     e6c:	a80b883a 	mov	r5,r21
     e70:	0026da40 	call	26da4 <__gedf2>
     e74:	00bfd216 	blt	zero,r2,dc0 <__alt_data_end+0xfffc25c0>
    }

    //LMS7_logf(LMS7_DEBUG, "Using: fdiv = %d, Ndiv = %f, fvco = %f MHz", fdiv, Ndiv, fvco/1e6);

    //stash the freq now that we know the loop above passed
    self->cgen_freq = fout;
     e78:	d9000417 	ldw	r4,16(sp)
    self->cgen_fref = fref;

    //usually these references are all the same frequency
    //setting the clock is a good time to initialize them
    //if they are not otherwise initialized by tuning the LO
    if (self->sxt_fref == 0.0) self->sxt_fref = fref;
     e7c:	b9447517 	ldw	r5,4564(r23)
    }

    //LMS7_logf(LMS7_DEBUG, "Using: fdiv = %d, Ndiv = %f, fvco = %f MHz", fdiv, Ndiv, fvco/1e6);

    //stash the freq now that we know the loop above passed
    self->cgen_freq = fout;
     e80:	bf046a15 	stw	fp,4520(r23)
     e84:	b9046b15 	stw	r4,4524(r23)
    self->cgen_fref = fref;

    //usually these references are all the same frequency
    //setting the clock is a good time to initialize them
    //if they are not otherwise initialized by tuning the LO
    if (self->sxt_fref == 0.0) self->sxt_fref = fref;
     e88:	b9047417 	ldw	r4,4560(r23)

    //LMS7_logf(LMS7_DEBUG, "Using: fdiv = %d, Ndiv = %f, fvco = %f MHz", fdiv, Ndiv, fvco/1e6);

    //stash the freq now that we know the loop above passed
    self->cgen_freq = fout;
    self->cgen_fref = fref;
     e8c:	bc847015 	stw	r18,4544(r23)
     e90:	bc447115 	stw	r17,4548(r23)

    //usually these references are all the same frequency
    //setting the clock is a good time to initialize them
    //if they are not otherwise initialized by tuning the LO
    if (self->sxt_fref == 0.0) self->sxt_fref = fref;
     e94:	000d883a 	mov	r6,zero
     e98:	000f883a 	mov	r7,zero
     e9c:	0026d1c0 	call	26d1c <__eqdf2>
     ea0:	1000021e 	bne	r2,zero,eac <LMS7002M_set_data_clock+0x140>
     ea4:	bc847415 	stw	r18,4560(r23)
     ea8:	bc447515 	stw	r17,4564(r23)
    if (self->sxr_fref == 0.0) self->sxr_fref = fref;
     eac:	b9047217 	ldw	r4,4552(r23)
     eb0:	b9447317 	ldw	r5,4556(r23)
     eb4:	000d883a 	mov	r6,zero
     eb8:	000f883a 	mov	r7,zero
     ebc:	0026d1c0 	call	26d1c <__eqdf2>
     ec0:	1000021e 	bne	r2,zero,ecc <LMS7002M_set_data_clock+0x160>
     ec4:	bc847215 	stw	r18,4552(r23)
     ec8:	bc447315 	stw	r17,4556(r23)

    //reset
    self->regs->reg_0x0086_reset_n_cgen = 0;
     ecc:	b8846917 	ldw	r2,4516(r23)
    LMS7002M_regs_spi_write(self, 0x0086);
     ed0:	01402184 	movi	r5,134
     ed4:	b809883a 	mov	r4,r23
    //if they are not otherwise initialized by tuning the LO
    if (self->sxt_fref == 0.0) self->sxt_fref = fref;
    if (self->sxr_fref == 0.0) self->sxr_fref = fref;

    //reset
    self->regs->reg_0x0086_reset_n_cgen = 0;
     ed8:	10007b15 	stw	zero,492(r2)
    LMS7002M_regs_spi_write(self, 0x0086);
     edc:	00063000 	call	6300 <LMS7002M_regs_spi_write>
    self->regs->reg_0x0086_reset_n_cgen = 1;
     ee0:	b8846917 	ldw	r2,4516(r23)
     ee4:	05400044 	movi	r21,1
    LMS7002M_regs_spi_write(self, 0x0086);
     ee8:	01402184 	movi	r5,134
    if (self->sxr_fref == 0.0) self->sxr_fref = fref;

    //reset
    self->regs->reg_0x0086_reset_n_cgen = 0;
    LMS7002M_regs_spi_write(self, 0x0086);
    self->regs->reg_0x0086_reset_n_cgen = 1;
     eec:	15407b15 	stw	r21,492(r2)
    LMS7002M_regs_spi_write(self, 0x0086);
     ef0:	b809883a 	mov	r4,r23
     ef4:	00063000 	call	6300 <LMS7002M_regs_spi_write>

    
    //configure and enable synthesizer
    self->regs->reg_0x0086_en_intonly_sdm_cgen = 0; //support frac-N
     ef8:	b8846917 	ldw	r2,4516(r23)
    self->regs->reg_0x0086_pd_vco_comp_cgen = 0; //enable
    self->regs->reg_0x0086_en_g_cgen = 1;
    self->regs->reg_0x0086_en_coarse_cklgen = 0;
    self->regs->reg_0x008b_coarse_start_cgen = 0;
    self->regs->reg_0x0086_spdup_vco_cgen = 1; //fast settling
    LMS7002M_regs_spi_write(self, 0x0086);
     efc:	01402184 	movi	r5,134
     f00:	b809883a 	mov	r4,r23
    LMS7002M_regs_spi_write(self, 0x0086);

    
    //configure and enable synthesizer
    self->regs->reg_0x0086_en_intonly_sdm_cgen = 0; //support frac-N
    self->regs->reg_0x0086_en_sdm_clk_cgen = 1; //enable
     f04:	15407f15 	stw	r21,508(r2)
    self->regs->reg_0x0086_pd_fdiv_fb_cgen = 0; //enable
    self->regs->reg_0x0086_pd_fdiv_o_cgen = 0; //enable
    self->regs->reg_0x0086_pd_sdm_cgen = 0; //enable
    self->regs->reg_0x0086_pd_vco_cgen = 0; //enable
    self->regs->reg_0x0086_pd_vco_comp_cgen = 0; //enable
    self->regs->reg_0x0086_en_g_cgen = 1;
     f08:	15408615 	stw	r21,536(r2)
    self->regs->reg_0x0086_en_coarse_cklgen = 0;
    self->regs->reg_0x008b_coarse_start_cgen = 0;
    self->regs->reg_0x0086_spdup_vco_cgen = 1; //fast settling
     f0c:	15407a15 	stw	r21,488(r2)
    self->regs->reg_0x0086_reset_n_cgen = 1;
    LMS7002M_regs_spi_write(self, 0x0086);

    
    //configure and enable synthesizer
    self->regs->reg_0x0086_en_intonly_sdm_cgen = 0; //support frac-N
     f10:	10007e15 	stw	zero,504(r2)
    self->regs->reg_0x0086_en_sdm_clk_cgen = 1; //enable
    self->regs->reg_0x0086_pd_cp_cgen = 0; //enable
     f14:	10008015 	stw	zero,512(r2)
    self->regs->reg_0x0086_pd_fdiv_fb_cgen = 0; //enable
     f18:	10008115 	stw	zero,516(r2)
    self->regs->reg_0x0086_pd_fdiv_o_cgen = 0; //enable
     f1c:	10008215 	stw	zero,520(r2)
    self->regs->reg_0x0086_pd_sdm_cgen = 0; //enable
     f20:	10008315 	stw	zero,524(r2)
    self->regs->reg_0x0086_pd_vco_cgen = 0; //enable
     f24:	10008415 	stw	zero,528(r2)
    self->regs->reg_0x0086_pd_vco_comp_cgen = 0; //enable
     f28:	10008515 	stw	zero,532(r2)
    self->regs->reg_0x0086_en_g_cgen = 1;
    self->regs->reg_0x0086_en_coarse_cklgen = 0;
     f2c:	10007d15 	stw	zero,500(r2)
    self->regs->reg_0x008b_coarse_start_cgen = 0;
     f30:	10009715 	stw	zero,604(r2)
    self->regs->reg_0x0086_spdup_vco_cgen = 1; //fast settling
    LMS7002M_regs_spi_write(self, 0x0086);
     f34:	00063000 	call	6300 <LMS7002M_regs_spi_write>

    //program the N divider
    const int Nint = (int)Ndiv;
     f38:	980b883a 	mov	r5,r19
     f3c:	a009883a 	mov	r4,r20
     f40:	00280dc0 	call	280dc <__fixdfsi>
    const int Nfrac = (int)((Ndiv-Nint)*(1 << 20));
     f44:	1009883a 	mov	r4,r2
    self->regs->reg_0x008b_coarse_start_cgen = 0;
    self->regs->reg_0x0086_spdup_vco_cgen = 1; //fast settling
    LMS7002M_regs_spi_write(self, 0x0086);

    //program the N divider
    const int Nint = (int)Ndiv;
     f48:	1039883a 	mov	fp,r2
    const int Nfrac = (int)((Ndiv-Nint)*(1 << 20));
     f4c:	002815c0 	call	2815c <__floatsidf>
     f50:	980b883a 	mov	r5,r19
     f54:	100d883a 	mov	r6,r2
     f58:	180f883a 	mov	r7,r3
     f5c:	a009883a 	mov	r4,r20
     f60:	102d883a 	mov	r22,r2
     f64:	182b883a 	mov	r21,r3
     f68:	00277e00 	call	277e0 <__subdf3>
     f6c:	000d883a 	mov	r6,zero
     f70:	01d04c34 	movhi	r7,16688
     f74:	1009883a 	mov	r4,r2
     f78:	180b883a 	mov	r5,r3
     f7c:	0026f740 	call	26f74 <__muldf3>
     f80:	180b883a 	mov	r5,r3
     f84:	1009883a 	mov	r4,r2
     f88:	00280dc0 	call	280dc <__fixdfsi>
     f8c:	1027883a 	mov	r19,r2
    self->regs->reg_0x0087_frac_sdm_cgen = (Nfrac) & 0xffff; //lower 16 bits
     f90:	b8846917 	ldw	r2,4516(r23)
     f94:	98ffffcc 	andi	r3,r19,65535
    self->regs->reg_0x0088_frac_sdm_cgen = (Nfrac) >> 16; //upper 4 bits
    self->regs->reg_0x0088_int_sdm_cgen = Nint-1;
     f98:	e73fffc4 	addi	fp,fp,-1
    LMS7002M_regs_spi_write(self, 0x0086);

    //program the N divider
    const int Nint = (int)Ndiv;
    const int Nfrac = (int)((Ndiv-Nint)*(1 << 20));
    self->regs->reg_0x0087_frac_sdm_cgen = (Nfrac) & 0xffff; //lower 16 bits
     f9c:	10c08715 	stw	r3,540(r2)
    self->regs->reg_0x0088_frac_sdm_cgen = (Nfrac) >> 16; //upper 4 bits
     fa0:	9807d43a 	srai	r3,r19,16
    self->regs->reg_0x0088_int_sdm_cgen = Nint-1;
     fa4:	17008815 	stw	fp,544(r2)
    //LMS7_logf(LMS7_DEBUG, "fdiv = %d, Ndiv = %f, Nint = %d, Nfrac = %d, fvco = %f MHz", fdiv, Ndiv, Nint, Nfrac, fvco/1e6);
    LMS7002M_regs_spi_write(self, 0x0087);
     fa8:	014021c4 	movi	r5,135

    //program the N divider
    const int Nint = (int)Ndiv;
    const int Nfrac = (int)((Ndiv-Nint)*(1 << 20));
    self->regs->reg_0x0087_frac_sdm_cgen = (Nfrac) & 0xffff; //lower 16 bits
    self->regs->reg_0x0088_frac_sdm_cgen = (Nfrac) >> 16; //upper 4 bits
     fac:	10c08915 	stw	r3,548(r2)
    self->regs->reg_0x0088_int_sdm_cgen = Nint-1;
    //LMS7_logf(LMS7_DEBUG, "fdiv = %d, Ndiv = %f, Nint = %d, Nfrac = %d, fvco = %f MHz", fdiv, Ndiv, Nint, Nfrac, fvco/1e6);
    LMS7002M_regs_spi_write(self, 0x0087);
     fb0:	b809883a 	mov	r4,r23
     fb4:	00063000 	call	6300 <LMS7002M_regs_spi_write>
    LMS7002M_regs_spi_write(self, 0x0088);
     fb8:	01402204 	movi	r5,136
     fbc:	b809883a 	mov	r4,r23
     fc0:	00063000 	call	6300 <LMS7002M_regs_spi_write>

    //program the feedback divider
    self->regs->reg_0x0089_sel_sdmclk_cgen = REG_0X0089_SEL_SDMCLK_CGEN_CLK_DIV;
    self->regs->reg_0x0089_div_outch_cgen = (fdiv/2)-1;
     fc4:	8021d07a 	srai	r16,r16,1
    //LMS7_logf(LMS7_DEBUG, "fdiv = %d, Ndiv = %f, Nint = %d, Nfrac = %d, fvco = %f MHz", fdiv, Ndiv, Nint, Nfrac, fvco/1e6);
    LMS7002M_regs_spi_write(self, 0x0087);
    LMS7002M_regs_spi_write(self, 0x0088);

    //program the feedback divider
    self->regs->reg_0x0089_sel_sdmclk_cgen = REG_0X0089_SEL_SDMCLK_CGEN_CLK_DIV;
     fc8:	b8846917 	ldw	r2,4516(r23)
    self->regs->reg_0x0089_div_outch_cgen = (fdiv/2)-1;
    LMS7002M_regs_spi_write(self, 0x0089);
     fcc:	01402244 	movi	r5,137
    LMS7002M_regs_spi_write(self, 0x0087);
    LMS7002M_regs_spi_write(self, 0x0088);

    //program the feedback divider
    self->regs->reg_0x0089_sel_sdmclk_cgen = REG_0X0089_SEL_SDMCLK_CGEN_CLK_DIV;
    self->regs->reg_0x0089_div_outch_cgen = (fdiv/2)-1;
     fd0:	843fffc4 	addi	r16,r16,-1
     fd4:	14008e15 	stw	r16,568(r2)
    //LMS7_logf(LMS7_DEBUG, "fdiv = %d, Ndiv = %f, Nint = %d, Nfrac = %d, fvco = %f MHz", fdiv, Ndiv, Nint, Nfrac, fvco/1e6);
    LMS7002M_regs_spi_write(self, 0x0087);
    LMS7002M_regs_spi_write(self, 0x0088);

    //program the feedback divider
    self->regs->reg_0x0089_sel_sdmclk_cgen = REG_0X0089_SEL_SDMCLK_CGEN_CLK_DIV;
     fd8:	10008b15 	stw	zero,556(r2)
    self->regs->reg_0x0089_div_outch_cgen = (fdiv/2)-1;
    LMS7002M_regs_spi_write(self, 0x0089);
     fdc:	b809883a 	mov	r4,r23
     fe0:	00063000 	call	6300 <LMS7002M_regs_spi_write>

    //select the correct CSW for this VCO frequency
    if (LMS7002M_tune_vco(self,
        &self->regs->reg_0x008b_csw_vco_cgen, 0x008B,
     fe4:	b9446917 	ldw	r5,4516(r23)
    self->regs->reg_0x0089_sel_sdmclk_cgen = REG_0X0089_SEL_SDMCLK_CGEN_CLK_DIV;
    self->regs->reg_0x0089_div_outch_cgen = (fdiv/2)-1;
    LMS7002M_regs_spi_write(self, 0x0089);

    //select the correct CSW for this VCO frequency
    if (LMS7002M_tune_vco(self,
     fe8:	00802304 	movi	r2,140
     fec:	d8800115 	stw	r2,4(sp)
     ff0:	28809b04 	addi	r2,r5,620
     ff4:	29c09a04 	addi	r7,r5,616
     ff8:	d8800015 	stw	r2,0(sp)
     ffc:	018022c4 	movi	r6,139
    1000:	29409604 	addi	r5,r5,600
    1004:	b809883a 	mov	r4,r23
    1008:	000e16c0 	call	e16c <LMS7002M_tune_vco>
    100c:	1021883a 	mov	r16,r2
    1010:	10000626 	beq	r2,zero,102c <LMS7002M_set_data_clock+0x2c0>
        &self->regs->reg_0x008b_csw_vco_cgen, 0x008B,
        &self->regs->reg_0x008c_vco_cmpho_cgen,
        &self->regs->reg_0x008c_vco_cmplo_cgen, 0x008C) != 0)
    {
        LMS7_log(LMS7_ERROR, "VCO select FAIL");
    1014:	014000f4 	movhi	r5,3
    1018:	29634d04 	addi	r5,r5,-29388
    101c:	010000c4 	movi	r4,3
    1020:	00098580 	call	9858 <LMS7_log>
        return -3;
    1024:	043fff44 	movi	r16,-3
    1028:	00002206 	br	10b4 <LMS7002M_set_data_clock+0x348>
    }
    

    self->regs->reg_0x0086_spdup_vco_cgen = 0; //done with fast settling
    102c:	b8846917 	ldw	r2,4516(r23)
    LMS7002M_regs_spi_write(self, 0x0086);
    1030:	01402184 	movi	r5,134
    1034:	b809883a 	mov	r4,r23
        LMS7_log(LMS7_ERROR, "VCO select FAIL");
        return -3;
    }
    

    self->regs->reg_0x0086_spdup_vco_cgen = 0; //done with fast settling
    1038:	10007a15 	stw	zero,488(r2)
    LMS7002M_regs_spi_write(self, 0x0086);
    103c:	00063000 	call	6300 <LMS7002M_regs_spi_write>

    //calculate the actual rate
    if (factual != NULL) *factual = fref * (Nint + (Nfrac/((double)(1 << 20)))) / fdiv;
    1040:	d8801117 	ldw	r2,68(sp)
    1044:	10001b26 	beq	r2,zero,10b4 <LMS7002M_set_data_clock+0x348>
    1048:	9809883a 	mov	r4,r19
    104c:	002815c0 	call	2815c <__floatsidf>
    1050:	000d883a 	mov	r6,zero
    1054:	01cfac34 	movhi	r7,16048
    1058:	1009883a 	mov	r4,r2
    105c:	180b883a 	mov	r5,r3
    1060:	0026f740 	call	26f74 <__muldf3>
    1064:	b00d883a 	mov	r6,r22
    1068:	a80f883a 	mov	r7,r21
    106c:	1009883a 	mov	r4,r2
    1070:	180b883a 	mov	r5,r3
    1074:	0025aa00 	call	25aa0 <__adddf3>
    1078:	900d883a 	mov	r6,r18
    107c:	880f883a 	mov	r7,r17
    1080:	1009883a 	mov	r4,r2
    1084:	180b883a 	mov	r5,r3
    1088:	0026f740 	call	26f74 <__muldf3>
    108c:	d9800217 	ldw	r6,8(sp)
    1090:	d9c00317 	ldw	r7,12(sp)
    1094:	1009883a 	mov	r4,r2
    1098:	180b883a 	mov	r5,r3
    109c:	002634c0 	call	2634c <__divdf3>
    10a0:	d9001117 	ldw	r4,68(sp)
    10a4:	20800015 	stw	r2,0(r4)
    10a8:	20c00115 	stw	r3,4(r4)
    10ac:	00000106 	br	10b4 <LMS7002M_set_data_clock+0x348>
        Ndiv = fout*fdiv/fref;
        fvco = fout*fdiv;
        //LMS7_logf(LMS7_TRACE, "Trying: fdiv = %d, Ndiv = %f, fvco = %f MHz", fdiv, Ndiv, fvco/1e6);

        //check dividers and vco in range...
        if (fdiv < 2) return -1;
    10b0:	043fffc4 	movi	r16,-1

    //calculate the actual rate
    if (factual != NULL) *factual = fref * (Nint + (Nfrac/((double)(1 << 20)))) / fdiv;
    
    return 0; //OK
}
    10b4:	8005883a 	mov	r2,r16
    10b8:	dfc00e17 	ldw	ra,56(sp)
    10bc:	df000d17 	ldw	fp,52(sp)
    10c0:	ddc00c17 	ldw	r23,48(sp)
    10c4:	dd800b17 	ldw	r22,44(sp)
    10c8:	dd400a17 	ldw	r21,40(sp)
    10cc:	dd000917 	ldw	r20,36(sp)
    10d0:	dcc00817 	ldw	r19,32(sp)
    10d4:	dc800717 	ldw	r18,28(sp)
    10d8:	dc400617 	ldw	r17,24(sp)
    10dc:	dc000517 	ldw	r16,20(sp)
    10e0:	dec01004 	addi	sp,sp,64
    10e4:	f800283a 	ret

000010e8 <cal_read_rssi>:
{
    return (LMS7_time_tps())/1000; //1 ms -> ticks
}

uint16_t cal_read_rssi(LMS7002M_t *self, const LMS7002M_chan_t channel)
{
    10e8:	defffd04 	addi	sp,sp,-12
    10ec:	dfc00215 	stw	ra,8(sp)
    10f0:	dc400115 	stw	r17,4(sp)
    10f4:	dc000015 	stw	r16,0(sp)
    10f8:	2823883a 	mov	r17,r5
    10fc:	2021883a 	mov	r16,r4
#include "LMS7002M_filter_cal.h"
#include <LMS7002M/LMS7002M_time.h>

static long long cal_rssi_sleep_ticks(void)
{
    return (LMS7_time_tps())/1000; //1 ms -> ticks
    1100:	000c5ec0 	call	c5ec <LMS7_time_tps>
}

uint16_t cal_read_rssi(LMS7002M_t *self, const LMS7002M_chan_t channel)
{
    LMS7_sleep_for(cal_rssi_sleep_ticks());
    1104:	0180fa04 	movi	r6,1000
    1108:	000f883a 	mov	r7,zero
    110c:	1009883a 	mov	r4,r2
    1110:	180b883a 	mov	r5,r3
    1114:	00244b00 	call	244b0 <__divdi3>
    1118:	1009883a 	mov	r4,r2
    111c:	180b883a 	mov	r5,r3
    1120:	000c6940 	call	c694 <LMS7_sleep_for>
    return LMS7002M_rxtsp_read_rssi(self, channel);
    1124:	880b883a 	mov	r5,r17
    1128:	8009883a 	mov	r4,r16
}
    112c:	dfc00217 	ldw	ra,8(sp)
    1130:	dc400117 	ldw	r17,4(sp)
    1134:	dc000017 	ldw	r16,0(sp)
    1138:	dec00304 	addi	sp,sp,12
}

uint16_t cal_read_rssi(LMS7002M_t *self, const LMS7002M_chan_t channel)
{
    LMS7_sleep_for(cal_rssi_sleep_ticks());
    return LMS7002M_rxtsp_read_rssi(self, channel);
    113c:	000b9a41 	jmpi	b9a4 <LMS7002M_rxtsp_read_rssi>

00001140 <set_addrs_to_default>:
}

void set_addrs_to_default(LMS7002M_t *self, const LMS7002M_chan_t channel, const int start_addr, const int stop_addr)
{
    1140:	defff704 	addi	sp,sp,-36
    1144:	ddc00715 	stw	r23,28(sp)
    1148:	dd800615 	stw	r22,24(sp)
    114c:	dd400515 	stw	r21,20(sp)
    1150:	dd000415 	stw	r20,16(sp)
    1154:	dcc00315 	stw	r19,12(sp)
    1158:	dc800215 	stw	r18,8(sp)
    115c:	dc400115 	stw	r17,4(sp)
    1160:	dfc00815 	stw	ra,32(sp)
    1164:	dc000015 	stw	r16,0(sp)
    1168:	2025883a 	mov	r18,r4
    116c:	3023883a 	mov	r17,r6
    1170:	382f883a 	mov	r23,r7
    LMS7002M_regs_set(regs, 0x0641, 0x1020);
}

static inline int LMS7002M_regs_default(const int addr)
{
    if (addr == 0x0020) return 0xffff;
    1174:	04c00804 	movi	r19,32
    LMS7002M_set_mac_ch(self, channel);
    1178:	00090c00 	call	90c0 <LMS7002M_set_mac_ch>
        regs->reg_0x0020_txen_b = (value >> 3) & 0x1;
        regs->reg_0x0020_txen_a = (value >> 2) & 0x1;
        regs->reg_0x0020_mac = (value >> 0) & 0x3;
        return;
    }
    if (addr == 0x0021)
    117c:	05000844 	movi	r20,33
        regs->reg_0x0021_sclk_pe = (value >> 2) & 0x1;
        regs->reg_0x0021_sen_pe = (value >> 1) & 0x1;
        regs->reg_0x0021_spimode = (value >> 0) & 0x1;
        return;
    }
    if (addr == 0x0022)
    1180:	05400884 	movi	r21,34
        regs->reg_0x0022_txnrx1_pe = (value >> 2) & 0x1;
        regs->reg_0x0022_fclk1_pe = (value >> 1) & 0x1;
        regs->reg_0x0022_mclk1_pe = (value >> 0) & 0x1;
        return;
    }
    if (addr == 0x0023)
    1184:	058008c4 	movi	r22,35
    for (int addr = start_addr; addr <= stop_addr; addr++)
    1188:	bc48a616 	blt	r23,r17,3424 <set_addrs_to_default+0x22e4>
    LMS7002M_regs_set(regs, 0x0641, 0x1020);
}

static inline int LMS7002M_regs_default(const int addr)
{
    if (addr == 0x0020) return 0xffff;
    118c:	8cc10726 	beq	r17,r19,15ac <set_addrs_to_default+0x46c>
    if (addr == 0x0021) return 0xe9f;
    1190:	8d00c626 	beq	r17,r20,14ac <set_addrs_to_default+0x36c>
    if (addr == 0x0022) return 0x7df;
    1194:	8d40f926 	beq	r17,r21,157c <set_addrs_to_default+0x43c>
    if (addr == 0x0023) return 0x5559;
    1198:	8d80fa26 	beq	r17,r22,1584 <set_addrs_to_default+0x444>
    if (addr == 0x0024) return 0xe4e4;
    119c:	00800904 	movi	r2,36
    11a0:	8880fa26 	beq	r17,r2,158c <set_addrs_to_default+0x44c>
    if (addr == 0x0025) return 0x101;
    11a4:	88bff6c4 	addi	r2,r17,-37
    11a8:	00c00044 	movi	r3,1
    11ac:	1880f92e 	bgeu	r3,r2,1594 <set_addrs_to_default+0x454>
    if (addr == 0x0026) return 0x101;
    if (addr == 0x0027) return 0xe4e4;
    11b0:	008009c4 	movi	r2,39
    11b4:	8880f526 	beq	r17,r2,158c <set_addrs_to_default+0x44c>
    if (addr == 0x0028) return 0x101;
    11b8:	88bff604 	addi	r2,r17,-40
    11bc:	1880f52e 	bgeu	r3,r2,1594 <set_addrs_to_default+0x454>
    if (addr == 0x0029) return 0x101;
    if (addr == 0x002A) return 0x86;
    11c0:	00800a84 	movi	r2,42
    11c4:	8880f526 	beq	r17,r2,159c <set_addrs_to_default+0x45c>
    if (addr == 0x002B) return 0x10;
    11c8:	00800ac4 	movi	r2,43
    11cc:	8880f526 	beq	r17,r2,15a4 <set_addrs_to_default+0x464>
    if (addr == 0x002C) return 0xffff;
    11d0:	00800b04 	movi	r2,44
    11d4:	8880f526 	beq	r17,r2,15ac <set_addrs_to_default+0x46c>
    if (addr == 0x002E) return 0x0;
    11d8:	00800b84 	movi	r2,46
    11dc:	88815b26 	beq	r17,r2,174c <set_addrs_to_default+0x60c>
    if (addr == 0x002F) return 0x3840;
    11e0:	00800bc4 	movi	r2,47
    11e4:	8880f326 	beq	r17,r2,15b4 <set_addrs_to_default+0x474>
    if (addr == 0x0081) return 0x0;
    11e8:	00802044 	movi	r2,129
    11ec:	88815726 	beq	r17,r2,174c <set_addrs_to_default+0x60c>
    if (addr == 0x0082) return 0x800b;
    11f0:	00802084 	movi	r2,130
    11f4:	8880f126 	beq	r17,r2,15bc <set_addrs_to_default+0x47c>
    if (addr == 0x0084) return 0x400;
    11f8:	00802104 	movi	r2,132
    11fc:	88813726 	beq	r17,r2,16dc <set_addrs_to_default+0x59c>
    if (addr == 0x0085) return 0x1;
    1200:	00802144 	movi	r2,133
    1204:	8880f526 	beq	r17,r2,15dc <set_addrs_to_default+0x49c>
    if (addr == 0x0086) return 0x4901;
    1208:	00802184 	movi	r2,134
    120c:	8880ed26 	beq	r17,r2,15c4 <set_addrs_to_default+0x484>
    if (addr == 0x0087) return 0x400;
    1210:	008021c4 	movi	r2,135
    1214:	88813126 	beq	r17,r2,16dc <set_addrs_to_default+0x59c>
    if (addr == 0x0088) return 0x780;
    1218:	00802204 	movi	r2,136
    121c:	88813126 	beq	r17,r2,16e4 <set_addrs_to_default+0x5a4>
    if (addr == 0x0089) return 0x20;
    1220:	00802244 	movi	r2,137
    1224:	88814326 	beq	r17,r2,1734 <set_addrs_to_default+0x5f4>
    if (addr == 0x008A) return 0x514;
    1228:	00802284 	movi	r2,138
    122c:	8880e726 	beq	r17,r2,15cc <set_addrs_to_default+0x48c>
    if (addr == 0x008B) return 0x2100;
    1230:	008022c4 	movi	r2,139
    1234:	8880e726 	beq	r17,r2,15d4 <set_addrs_to_default+0x494>
    if (addr == 0x008C) return 0x67b;
    1238:	00802304 	movi	r2,140
    123c:	88813326 	beq	r17,r2,170c <set_addrs_to_default+0x5cc>
    if (addr == 0x008D) return 0x0;
    1240:	00802344 	movi	r2,141
    1244:	88814126 	beq	r17,r2,174c <set_addrs_to_default+0x60c>
    if (addr == 0x0092) return 0x1;
    1248:	00802484 	movi	r2,146
    124c:	8880e326 	beq	r17,r2,15dc <set_addrs_to_default+0x49c>
    if (addr == 0x0093) return 0x0;
    1250:	88bfdb44 	addi	r2,r17,-147
    1254:	00c00144 	movi	r3,5
    1258:	18813c2e 	bgeu	r3,r2,174c <set_addrs_to_default+0x60c>
    if (addr == 0x0094) return 0x0;
    if (addr == 0x0095) return 0x0;
    if (addr == 0x0096) return 0x0;
    if (addr == 0x0097) return 0x0;
    if (addr == 0x0098) return 0x0;
    if (addr == 0x0099) return 0x6565;
    125c:	00802644 	movi	r2,153
    1260:	8880e426 	beq	r17,r2,15f4 <set_addrs_to_default+0x4b4>
    if (addr == 0x009A) return 0x658c;
    1264:	00802684 	movi	r2,154
    1268:	8880de26 	beq	r17,r2,15e4 <set_addrs_to_default+0x4a4>
    if (addr == 0x009B) return 0x6565;
    126c:	008026c4 	movi	r2,155
    1270:	8880e026 	beq	r17,r2,15f4 <set_addrs_to_default+0x4b4>
    if (addr == 0x009C) return 0x658c;
    1274:	00802704 	movi	r2,156
    1278:	8880da26 	beq	r17,r2,15e4 <set_addrs_to_default+0x4a4>
    if (addr == 0x009D) return 0x6565;
    127c:	00802744 	movi	r2,157
    1280:	8880dc26 	beq	r17,r2,15f4 <set_addrs_to_default+0x4b4>
    if (addr == 0x009E) return 0x658c;
    1284:	88bfd884 	addi	r2,r17,-158
    1288:	00c00044 	movi	r3,1
    128c:	1880d52e 	bgeu	r3,r2,15e4 <set_addrs_to_default+0x4a4>
    if (addr == 0x009F) return 0x658c;
    if (addr == 0x00A0) return 0x6565;
    1290:	88bfd804 	addi	r2,r17,-160
    1294:	01000144 	movi	r4,5
    1298:	2080d62e 	bgeu	r4,r2,15f4 <set_addrs_to_default+0x4b4>
    if (addr == 0x00A1) return 0x6565;
    if (addr == 0x00A2) return 0x6565;
    if (addr == 0x00A3) return 0x6565;
    if (addr == 0x00A4) return 0x6565;
    if (addr == 0x00A5) return 0x6565;
    if (addr == 0x00A6) return 0xf;
    129c:	00802984 	movi	r2,166
    12a0:	8880d226 	beq	r17,r2,15ec <set_addrs_to_default+0x4ac>
    if (addr == 0x00A7) return 0x6565;
    12a4:	008029c4 	movi	r2,167
    12a8:	8880d226 	beq	r17,r2,15f4 <set_addrs_to_default+0x4b4>
    if (addr == 0x00a8) return 0x0;
    12ac:	00802a04 	movi	r2,168
    12b0:	88812626 	beq	r17,r2,174c <set_addrs_to_default+0x60c>
    if (addr == 0x00aa) return 0x0;
    12b4:	88bfd584 	addi	r2,r17,-170
    12b8:	1881242e 	bgeu	r3,r2,174c <set_addrs_to_default+0x60c>
    if (addr == 0x00ab) return 0x0;
    if (addr == 0x00ad) return 0x3ff;
    12bc:	00802b44 	movi	r2,173
    12c0:	8880ce26 	beq	r17,r2,15fc <set_addrs_to_default+0x4bc>
    if (addr == 0x00ae) return 0xf000;
    12c4:	00802b84 	movi	r2,174
    12c8:	8880ce26 	beq	r17,r2,1604 <set_addrs_to_default+0x4c4>
    if (addr == 0x0100) return 0x3409;
    12cc:	00804004 	movi	r2,256
    12d0:	8880ce26 	beq	r17,r2,160c <set_addrs_to_default+0x4cc>
    if (addr == 0x0101) return 0x7800;
    12d4:	00804044 	movi	r2,257
    12d8:	8880ce26 	beq	r17,r2,1614 <set_addrs_to_default+0x4d4>
    if (addr == 0x0102) return 0x3180;
    12dc:	00804084 	movi	r2,258
    12e0:	8880ce26 	beq	r17,r2,161c <set_addrs_to_default+0x4dc>
    if (addr == 0x0103) return 0xa12;
    12e4:	008040c4 	movi	r2,259
    12e8:	8880ce26 	beq	r17,r2,1624 <set_addrs_to_default+0x4e4>
    if (addr == 0x0104) return 0x88;
    12ec:	00804104 	movi	r2,260
    12f0:	8880ce26 	beq	r17,r2,162c <set_addrs_to_default+0x4ec>
    if (addr == 0x0105) return 0x7;
    12f4:	00804144 	movi	r2,261
    12f8:	8880ce26 	beq	r17,r2,1634 <set_addrs_to_default+0x4f4>
    if (addr == 0x0106) return 0x318c;
    12fc:	88bfbe84 	addi	r2,r17,-262
    1300:	1880ce2e 	bgeu	r3,r2,163c <set_addrs_to_default+0x4fc>
    if (addr == 0x0107) return 0x318c;
    if (addr == 0x0108) return 0x9426;
    1304:	00804204 	movi	r2,264
    1308:	8880ce26 	beq	r17,r2,1644 <set_addrs_to_default+0x504>
    if (addr == 0x0109) return 0x61c1;
    130c:	00804244 	movi	r2,265
    1310:	8880ce26 	beq	r17,r2,164c <set_addrs_to_default+0x50c>
    if (addr == 0x010A) return 0x104c;
    1314:	00804284 	movi	r2,266
    1318:	8880ce26 	beq	r17,r2,1654 <set_addrs_to_default+0x514>
    if (addr == 0x010b) return 0x0;
    131c:	008042c4 	movi	r2,267
    1320:	88810a26 	beq	r17,r2,174c <set_addrs_to_default+0x60c>
    if (addr == 0x010C) return 0x88fd;
    1324:	00804304 	movi	r2,268
    1328:	8880cc26 	beq	r17,r2,165c <set_addrs_to_default+0x51c>
    if (addr == 0x010D) return 0x9e;
    132c:	00804344 	movi	r2,269
    1330:	8880cc26 	beq	r17,r2,1664 <set_addrs_to_default+0x524>
    if (addr == 0x010E) return 0x2040;
    1334:	00804384 	movi	r2,270
    1338:	8880cc26 	beq	r17,r2,166c <set_addrs_to_default+0x52c>
    if (addr == 0x010F) return 0x3042;
    133c:	008043c4 	movi	r2,271
    1340:	8880cc26 	beq	r17,r2,1674 <set_addrs_to_default+0x534>
    if (addr == 0x0110) return 0xbf4;
    1344:	00804404 	movi	r2,272
    1348:	8880cc26 	beq	r17,r2,167c <set_addrs_to_default+0x53c>
    if (addr == 0x0111) return 0x83;
    134c:	00804444 	movi	r2,273
    1350:	8880cc26 	beq	r17,r2,1684 <set_addrs_to_default+0x544>
    if (addr == 0x0112) return 0xc0e6;
    1354:	00804484 	movi	r2,274
    1358:	8880cc26 	beq	r17,r2,168c <set_addrs_to_default+0x54c>
    if (addr == 0x0113) return 0x3c3;
    135c:	008044c4 	movi	r2,275
    1360:	8880cc26 	beq	r17,r2,1694 <set_addrs_to_default+0x554>
    if (addr == 0x0114) return 0x8d;
    1364:	00804504 	movi	r2,276
    1368:	8880cc26 	beq	r17,r2,169c <set_addrs_to_default+0x55c>
    if (addr == 0x0115) return 0x9;
    136c:	00804544 	movi	r2,277
    1370:	8880cc26 	beq	r17,r2,16a4 <set_addrs_to_default+0x564>
    if (addr == 0x0116) return 0x8180;
    1374:	00804584 	movi	r2,278
    1378:	8880cc26 	beq	r17,r2,16ac <set_addrs_to_default+0x56c>
    if (addr == 0x0117) return 0x280c;
    137c:	008045c4 	movi	r2,279
    1380:	8880cc26 	beq	r17,r2,16b4 <set_addrs_to_default+0x574>
    if (addr == 0x0118) return 0x18c;
    1384:	00804604 	movi	r2,280
    1388:	8880cc26 	beq	r17,r2,16bc <set_addrs_to_default+0x57c>
    if (addr == 0x0119) return 0x18cb;
    138c:	00804644 	movi	r2,281
    1390:	8880cc26 	beq	r17,r2,16c4 <set_addrs_to_default+0x584>
    if (addr == 0x011A) return 0x2e02;
    1394:	00804684 	movi	r2,282
    1398:	8880cc26 	beq	r17,r2,16cc <set_addrs_to_default+0x58c>
    if (addr == 0x011B) return 0x0;
    139c:	008046c4 	movi	r2,283
    13a0:	8880ea26 	beq	r17,r2,174c <set_addrs_to_default+0x60c>
    if (addr == 0x011C) return 0xad43;
    13a4:	00804704 	movi	r2,284
    13a8:	8880ca26 	beq	r17,r2,16d4 <set_addrs_to_default+0x594>
    if (addr == 0x011D) return 0x400;
    13ac:	00804744 	movi	r2,285
    13b0:	8880ca26 	beq	r17,r2,16dc <set_addrs_to_default+0x59c>
    if (addr == 0x011E) return 0x780;
    13b4:	00804784 	movi	r2,286
    13b8:	8880ca26 	beq	r17,r2,16e4 <set_addrs_to_default+0x5a4>
    if (addr == 0x011F) return 0x3640;
    13bc:	008047c4 	movi	r2,287
    13c0:	8880ca26 	beq	r17,r2,16ec <set_addrs_to_default+0x5ac>
    if (addr == 0x0120) return 0xb9ff;
    13c4:	00804804 	movi	r2,288
    13c8:	8880ca26 	beq	r17,r2,16f4 <set_addrs_to_default+0x5b4>
    if (addr == 0x0121) return 0x3404;
    13cc:	00804844 	movi	r2,289
    13d0:	8880ca26 	beq	r17,r2,16fc <set_addrs_to_default+0x5bc>
    if (addr == 0x0122) return 0x33f;
    13d4:	00804884 	movi	r2,290
    13d8:	8880ca26 	beq	r17,r2,1704 <set_addrs_to_default+0x5c4>
    if (addr == 0x0123) return 0x67b;
    13dc:	008048c4 	movi	r2,291
    13e0:	8880ca26 	beq	r17,r2,170c <set_addrs_to_default+0x5cc>
    if (addr == 0x0124) return 0x0;
    13e4:	00804904 	movi	r2,292
    13e8:	8880d826 	beq	r17,r2,174c <set_addrs_to_default+0x60c>
    if (addr == 0x0125) return 0x9400;
    13ec:	00804944 	movi	r2,293
    13f0:	8880c826 	beq	r17,r2,1714 <set_addrs_to_default+0x5d4>
    if (addr == 0x0126) return 0x12ff;
    13f4:	00804984 	movi	r2,294
    13f8:	8880c826 	beq	r17,r2,171c <set_addrs_to_default+0x5dc>
    if (addr == 0x0200) return 0x81;
    13fc:	00808004 	movi	r2,512
    1400:	8880c826 	beq	r17,r2,1724 <set_addrs_to_default+0x5e4>
    if (addr == 0x0201) return 0x7ff;
    1404:	88bf7fc4 	addi	r2,r17,-513
    1408:	1880c82e 	bgeu	r3,r2,172c <set_addrs_to_default+0x5ec>
    if (addr == 0x0202) return 0x7ff;
    if (addr == 0x0203) return 0x0;
    140c:	88bf7f44 	addi	r2,r17,-515
    1410:	010001c4 	movi	r4,7
    1414:	2080cd2e 	bgeu	r4,r2,174c <set_addrs_to_default+0x60c>
    if (addr == 0x0206) return 0x0;
    if (addr == 0x0207) return 0x0;
    if (addr == 0x0208) return 0x0;
    if (addr == 0x0209) return 0x0;
    if (addr == 0x020a) return 0x0;
    if (addr == 0x020C) return 0x0;
    1418:	00808304 	movi	r2,524
    141c:	8880cb26 	beq	r17,r2,174c <set_addrs_to_default+0x60c>
    if (addr == 0x0240) return 0x20;
    1420:	00809004 	movi	r2,576
    1424:	8880c326 	beq	r17,r2,1734 <set_addrs_to_default+0x5f4>
    if (addr == 0x0241) return 0x0;
    1428:	88bf6fc4 	addi	r2,r17,-577
    142c:	01000084 	movi	r4,2
    1430:	2080c62e 	bgeu	r4,r2,174c <set_addrs_to_default+0x60c>
    if (addr == 0x0242) return 0x0;
    if (addr == 0x0243) return 0x0;
    if (addr == 0x0400) return 0x81;
    1434:	00810004 	movi	r2,1024
    1438:	8880ba26 	beq	r17,r2,1724 <set_addrs_to_default+0x5e4>
    if (addr == 0x0401) return 0x7ff;
    143c:	88beffc4 	addi	r2,r17,-1025
    1440:	1880ba2e 	bgeu	r3,r2,172c <set_addrs_to_default+0x5ec>
    if (addr == 0x0402) return 0x7ff;
    if (addr == 0x0403) return 0x0;
    1444:	88beff44 	addi	r2,r17,-1027
    1448:	00c00244 	movi	r3,9
    144c:	1880bf2e 	bgeu	r3,r2,174c <set_addrs_to_default+0x60c>
    if (addr == 0x0408) return 0x0;
    if (addr == 0x0409) return 0x0;
    if (addr == 0x040A) return 0x0;
    if (addr == 0x040B) return 0x0;
    if (addr == 0x040C) return 0x0;
    if (addr == 0x040e) return 0x0;
    1450:	00810384 	movi	r2,1038
    1454:	8880bd26 	beq	r17,r2,174c <set_addrs_to_default+0x60c>
    if (addr == 0x0440) return 0x20;
    1458:	00811004 	movi	r2,1088
    145c:	8880b526 	beq	r17,r2,1734 <set_addrs_to_default+0x5f4>
    if (addr == 0x0441) return 0x0;
    1460:	88beefc4 	addi	r2,r17,-1089
    1464:	2080b92e 	bgeu	r4,r2,174c <set_addrs_to_default+0x60c>
    if (addr == 0x0442) return 0x0;
    if (addr == 0x0443) return 0x0;
    if (addr == 0x05c0) return 0x0;
    1468:	88be9004 	addi	r2,r17,-1472
    146c:	00c00304 	movi	r3,12
    1470:	1880b62e 	bgeu	r3,r2,174c <set_addrs_to_default+0x60c>
    if (addr == 0x05c8) return 0x0;
    if (addr == 0x05c9) return 0x0;
    if (addr == 0x05ca) return 0x0;
    if (addr == 0x05cb) return 0x0;
    if (addr == 0x05cc) return 0x0;
    if (addr == 0x0600) return 0xf00;
    1474:	00818004 	movi	r2,1536
    1478:	8880b026 	beq	r17,r2,173c <set_addrs_to_default+0x5fc>
    if (addr == 0x0601) return 0x0;
    147c:	00818044 	movi	r2,1537
    1480:	8880b226 	beq	r17,r2,174c <set_addrs_to_default+0x60c>
    if (addr == 0x0602) return 0x2000;
    1484:	00818084 	movi	r2,1538
    1488:	8880ae26 	beq	r17,r2,1744 <set_addrs_to_default+0x604>
    if (addr == 0x0603) return 0x0;
    148c:	88be7f44 	addi	r2,r17,-1539
    1490:	00c000c4 	movi	r3,3
    1494:	1880ad2e 	bgeu	r3,r2,174c <set_addrs_to_default+0x60c>
    if (addr == 0x0604) return 0x0;
    if (addr == 0x0605) return 0x0;
    if (addr == 0x0606) return 0x0;
    if (addr == 0x0640) return 0xa0;
    1498:	00819004 	movi	r2,1600
    149c:	8880ad26 	beq	r17,r2,1754 <set_addrs_to_default+0x614>
    if (addr == 0x0641) return 0x1020;
    14a0:	00819044 	movi	r2,1601
    14a4:	8880ad26 	beq	r17,r2,175c <set_addrs_to_default+0x61c>
    14a8:	00003206 	br	1574 <set_addrs_to_default+0x434>
}

static inline int LMS7002M_regs_default(const int addr)
{
    if (addr == 0x0020) return 0xffff;
    if (addr == 0x0021) return 0xe9f;
    14ac:	0403a7c4 	movi	r16,3743
    {
        int value = LMS7002M_regs_default(addr);
        if (value == -1) continue; //not in map
        LMS7002M_regs_set(LMS7002M_regs(self), addr, value);
    14b0:	9009883a 	mov	r4,r18
    14b4:	0008ac80 	call	8ac8 <LMS7002M_regs>
    return -1;
}

static inline void LMS7002M_regs_set(LMS7002M_regs_t *regs, const int addr, const int value)
{
    if (addr == 0x0020)
    14b8:	8cc0aa1e 	bne	r17,r19,1764 <set_addrs_to_default+0x624>
    {
        regs->reg_0x0020_lrst_tx_b = (value >> 15) & 0x1;
    14bc:	8007d3fa 	srai	r3,r16,15
    14c0:	10c00015 	stw	r3,0(r2)
        regs->reg_0x0020_mrst_tx_b = (value >> 14) & 0x1;
    14c4:	8007d3ba 	srai	r3,r16,14
    14c8:	18c0004c 	andi	r3,r3,1
    14cc:	10c00115 	stw	r3,4(r2)
        regs->reg_0x0020_lrst_tx_a = (value >> 13) & 0x1;
    14d0:	8007d37a 	srai	r3,r16,13
    14d4:	18c0004c 	andi	r3,r3,1
    14d8:	10c00215 	stw	r3,8(r2)
        regs->reg_0x0020_mrst_tx_a = (value >> 12) & 0x1;
    14dc:	8007d33a 	srai	r3,r16,12
    14e0:	18c0004c 	andi	r3,r3,1
    14e4:	10c00315 	stw	r3,12(r2)
        regs->reg_0x0020_lrst_rx_b = (value >> 11) & 0x1;
    14e8:	8007d2fa 	srai	r3,r16,11
    14ec:	18c0004c 	andi	r3,r3,1
    14f0:	10c00415 	stw	r3,16(r2)
        regs->reg_0x0020_mrst_rx_b = (value >> 10) & 0x1;
    14f4:	8007d2ba 	srai	r3,r16,10
    14f8:	18c0004c 	andi	r3,r3,1
    14fc:	10c00515 	stw	r3,20(r2)
        regs->reg_0x0020_lrst_rx_a = (value >> 9) & 0x1;
    1500:	8007d27a 	srai	r3,r16,9
    1504:	18c0004c 	andi	r3,r3,1
    1508:	10c00615 	stw	r3,24(r2)
        regs->reg_0x0020_mrst_rx_a = (value >> 8) & 0x1;
    150c:	8007d23a 	srai	r3,r16,8
    1510:	18c0004c 	andi	r3,r3,1
    1514:	10c00715 	stw	r3,28(r2)
        regs->reg_0x0020_srst_rxfifo = (value >> 7) & 0x1;
    1518:	8007d1fa 	srai	r3,r16,7
    151c:	18c0004c 	andi	r3,r3,1
    1520:	10c00815 	stw	r3,32(r2)
        regs->reg_0x0020_srst_txfifo = (value >> 6) & 0x1;
    1524:	8007d1ba 	srai	r3,r16,6
    1528:	18c0004c 	andi	r3,r3,1
    152c:	10c00915 	stw	r3,36(r2)
        regs->reg_0x0020_rxen_b = (value >> 5) & 0x1;
    1530:	8007d17a 	srai	r3,r16,5
    1534:	18c0004c 	andi	r3,r3,1
    1538:	10c00a15 	stw	r3,40(r2)
        regs->reg_0x0020_rxen_a = (value >> 4) & 0x1;
    153c:	8007d13a 	srai	r3,r16,4
    1540:	18c0004c 	andi	r3,r3,1
    1544:	10c00b15 	stw	r3,44(r2)
        regs->reg_0x0020_txen_b = (value >> 3) & 0x1;
    1548:	8007d0fa 	srai	r3,r16,3
    154c:	18c0004c 	andi	r3,r3,1
    1550:	10c00c15 	stw	r3,48(r2)
        regs->reg_0x0020_txen_a = (value >> 2) & 0x1;
    1554:	8007d0ba 	srai	r3,r16,2
        regs->reg_0x0020_mac = (value >> 0) & 0x3;
    1558:	840000cc 	andi	r16,r16,3
    155c:	14000e15 	stw	r16,56(r2)
        regs->reg_0x0020_srst_rxfifo = (value >> 7) & 0x1;
        regs->reg_0x0020_srst_txfifo = (value >> 6) & 0x1;
        regs->reg_0x0020_rxen_b = (value >> 5) & 0x1;
        regs->reg_0x0020_rxen_a = (value >> 4) & 0x1;
        regs->reg_0x0020_txen_b = (value >> 3) & 0x1;
        regs->reg_0x0020_txen_a = (value >> 2) & 0x1;
    1560:	18c0004c 	andi	r3,r3,1
    1564:	10c00d15 	stw	r3,52(r2)
        LMS7002M_regs_spi_write(self, addr);
    1568:	880b883a 	mov	r5,r17
    156c:	9009883a 	mov	r4,r18
    1570:	00063000 	call	6300 <LMS7002M_regs_spi_write>
}

void set_addrs_to_default(LMS7002M_t *self, const LMS7002M_chan_t channel, const int start_addr, const int stop_addr)
{
    LMS7002M_set_mac_ch(self, channel);
    for (int addr = start_addr; addr <= stop_addr; addr++)
    1574:	8c400044 	addi	r17,r17,1
    1578:	003f0306 	br	1188 <__alt_data_end+0xfffc2988>

static inline int LMS7002M_regs_default(const int addr)
{
    if (addr == 0x0020) return 0xffff;
    if (addr == 0x0021) return 0xe9f;
    if (addr == 0x0022) return 0x7df;
    157c:	0401f7c4 	movi	r16,2015
    1580:	003fcb06 	br	14b0 <__alt_data_end+0xfffc2cb0>
    if (addr == 0x0023) return 0x5559;
    1584:	04155644 	movi	r16,21849
    1588:	003fc906 	br	14b0 <__alt_data_end+0xfffc2cb0>
    if (addr == 0x0024) return 0xe4e4;
    158c:	04393914 	movui	r16,58596
    1590:	003fc706 	br	14b0 <__alt_data_end+0xfffc2cb0>
    if (addr == 0x0025) return 0x101;
    1594:	04004044 	movi	r16,257
    1598:	003fc506 	br	14b0 <__alt_data_end+0xfffc2cb0>
    if (addr == 0x0026) return 0x101;
    if (addr == 0x0027) return 0xe4e4;
    if (addr == 0x0028) return 0x101;
    if (addr == 0x0029) return 0x101;
    if (addr == 0x002A) return 0x86;
    159c:	04002184 	movi	r16,134
    15a0:	003fc306 	br	14b0 <__alt_data_end+0xfffc2cb0>
    if (addr == 0x002B) return 0x10;
    15a4:	04000404 	movi	r16,16
    15a8:	003fc106 	br	14b0 <__alt_data_end+0xfffc2cb0>
    LMS7002M_regs_set(regs, 0x0641, 0x1020);
}

static inline int LMS7002M_regs_default(const int addr)
{
    if (addr == 0x0020) return 0xffff;
    15ac:	043fffd4 	movui	r16,65535
    15b0:	003fbf06 	br	14b0 <__alt_data_end+0xfffc2cb0>
    if (addr == 0x0029) return 0x101;
    if (addr == 0x002A) return 0x86;
    if (addr == 0x002B) return 0x10;
    if (addr == 0x002C) return 0xffff;
    if (addr == 0x002E) return 0x0;
    if (addr == 0x002F) return 0x3840;
    15b4:	040e1004 	movi	r16,14400
    15b8:	003fbd06 	br	14b0 <__alt_data_end+0xfffc2cb0>
    if (addr == 0x0081) return 0x0;
    if (addr == 0x0082) return 0x800b;
    15bc:	042002d4 	movui	r16,32779
    15c0:	003fbb06 	br	14b0 <__alt_data_end+0xfffc2cb0>
    if (addr == 0x0084) return 0x400;
    if (addr == 0x0085) return 0x1;
    if (addr == 0x0086) return 0x4901;
    15c4:	04124044 	movi	r16,18689
    15c8:	003fb906 	br	14b0 <__alt_data_end+0xfffc2cb0>
    if (addr == 0x0087) return 0x400;
    if (addr == 0x0088) return 0x780;
    if (addr == 0x0089) return 0x20;
    if (addr == 0x008A) return 0x514;
    15cc:	04014504 	movi	r16,1300
    15d0:	003fb706 	br	14b0 <__alt_data_end+0xfffc2cb0>
    if (addr == 0x008B) return 0x2100;
    15d4:	04084004 	movi	r16,8448
    15d8:	003fb506 	br	14b0 <__alt_data_end+0xfffc2cb0>
    if (addr == 0x002E) return 0x0;
    if (addr == 0x002F) return 0x3840;
    if (addr == 0x0081) return 0x0;
    if (addr == 0x0082) return 0x800b;
    if (addr == 0x0084) return 0x400;
    if (addr == 0x0085) return 0x1;
    15dc:	04000044 	movi	r16,1
    15e0:	003fb306 	br	14b0 <__alt_data_end+0xfffc2cb0>
    if (addr == 0x0095) return 0x0;
    if (addr == 0x0096) return 0x0;
    if (addr == 0x0097) return 0x0;
    if (addr == 0x0098) return 0x0;
    if (addr == 0x0099) return 0x6565;
    if (addr == 0x009A) return 0x658c;
    15e4:	04196304 	movi	r16,25996
    15e8:	003fb106 	br	14b0 <__alt_data_end+0xfffc2cb0>
    if (addr == 0x00A1) return 0x6565;
    if (addr == 0x00A2) return 0x6565;
    if (addr == 0x00A3) return 0x6565;
    if (addr == 0x00A4) return 0x6565;
    if (addr == 0x00A5) return 0x6565;
    if (addr == 0x00A6) return 0xf;
    15ec:	040003c4 	movi	r16,15
    15f0:	003faf06 	br	14b0 <__alt_data_end+0xfffc2cb0>
    if (addr == 0x0094) return 0x0;
    if (addr == 0x0095) return 0x0;
    if (addr == 0x0096) return 0x0;
    if (addr == 0x0097) return 0x0;
    if (addr == 0x0098) return 0x0;
    if (addr == 0x0099) return 0x6565;
    15f4:	04195944 	movi	r16,25957
    15f8:	003fad06 	br	14b0 <__alt_data_end+0xfffc2cb0>
    if (addr == 0x00A6) return 0xf;
    if (addr == 0x00A7) return 0x6565;
    if (addr == 0x00a8) return 0x0;
    if (addr == 0x00aa) return 0x0;
    if (addr == 0x00ab) return 0x0;
    if (addr == 0x00ad) return 0x3ff;
    15fc:	0400ffc4 	movi	r16,1023
    1600:	003fab06 	br	14b0 <__alt_data_end+0xfffc2cb0>
    if (addr == 0x00ae) return 0xf000;
    1604:	043c0014 	movui	r16,61440
    1608:	003fa906 	br	14b0 <__alt_data_end+0xfffc2cb0>
    if (addr == 0x0100) return 0x3409;
    160c:	040d0244 	movi	r16,13321
    1610:	003fa706 	br	14b0 <__alt_data_end+0xfffc2cb0>
    if (addr == 0x0101) return 0x7800;
    1614:	041e0004 	movi	r16,30720
    1618:	003fa506 	br	14b0 <__alt_data_end+0xfffc2cb0>
    if (addr == 0x0102) return 0x3180;
    161c:	040c6004 	movi	r16,12672
    1620:	003fa306 	br	14b0 <__alt_data_end+0xfffc2cb0>
    if (addr == 0x0103) return 0xa12;
    1624:	04028484 	movi	r16,2578
    1628:	003fa106 	br	14b0 <__alt_data_end+0xfffc2cb0>
    if (addr == 0x0104) return 0x88;
    162c:	04002204 	movi	r16,136
    1630:	003f9f06 	br	14b0 <__alt_data_end+0xfffc2cb0>
    if (addr == 0x0105) return 0x7;
    1634:	040001c4 	movi	r16,7
    1638:	003f9d06 	br	14b0 <__alt_data_end+0xfffc2cb0>
    if (addr == 0x0106) return 0x318c;
    163c:	040c6304 	movi	r16,12684
    1640:	003f9b06 	br	14b0 <__alt_data_end+0xfffc2cb0>
    if (addr == 0x0107) return 0x318c;
    if (addr == 0x0108) return 0x9426;
    1644:	04250994 	movui	r16,37926
    1648:	003f9906 	br	14b0 <__alt_data_end+0xfffc2cb0>
    if (addr == 0x0109) return 0x61c1;
    164c:	04187044 	movi	r16,25025
    1650:	003f9706 	br	14b0 <__alt_data_end+0xfffc2cb0>
    if (addr == 0x010A) return 0x104c;
    1654:	04041304 	movi	r16,4172
    1658:	003f9506 	br	14b0 <__alt_data_end+0xfffc2cb0>
    if (addr == 0x010b) return 0x0;
    if (addr == 0x010C) return 0x88fd;
    165c:	04223f54 	movui	r16,35069
    1660:	003f9306 	br	14b0 <__alt_data_end+0xfffc2cb0>
    if (addr == 0x010D) return 0x9e;
    1664:	04002784 	movi	r16,158
    1668:	003f9106 	br	14b0 <__alt_data_end+0xfffc2cb0>
    if (addr == 0x010E) return 0x2040;
    166c:	04081004 	movi	r16,8256
    1670:	003f8f06 	br	14b0 <__alt_data_end+0xfffc2cb0>
    if (addr == 0x010F) return 0x3042;
    1674:	040c1084 	movi	r16,12354
    1678:	003f8d06 	br	14b0 <__alt_data_end+0xfffc2cb0>
    if (addr == 0x0110) return 0xbf4;
    167c:	0402fd04 	movi	r16,3060
    1680:	003f8b06 	br	14b0 <__alt_data_end+0xfffc2cb0>
    if (addr == 0x0111) return 0x83;
    1684:	040020c4 	movi	r16,131
    1688:	003f8906 	br	14b0 <__alt_data_end+0xfffc2cb0>
    if (addr == 0x0112) return 0xc0e6;
    168c:	04303994 	movui	r16,49382
    1690:	003f8706 	br	14b0 <__alt_data_end+0xfffc2cb0>
    if (addr == 0x0113) return 0x3c3;
    1694:	0400f0c4 	movi	r16,963
    1698:	003f8506 	br	14b0 <__alt_data_end+0xfffc2cb0>
    if (addr == 0x0114) return 0x8d;
    169c:	04002344 	movi	r16,141
    16a0:	003f8306 	br	14b0 <__alt_data_end+0xfffc2cb0>
    if (addr == 0x0115) return 0x9;
    16a4:	04000244 	movi	r16,9
    16a8:	003f8106 	br	14b0 <__alt_data_end+0xfffc2cb0>
    if (addr == 0x0116) return 0x8180;
    16ac:	04206014 	movui	r16,33152
    16b0:	003f7f06 	br	14b0 <__alt_data_end+0xfffc2cb0>
    if (addr == 0x0117) return 0x280c;
    16b4:	040a0304 	movi	r16,10252
    16b8:	003f7d06 	br	14b0 <__alt_data_end+0xfffc2cb0>
    if (addr == 0x0118) return 0x18c;
    16bc:	04006304 	movi	r16,396
    16c0:	003f7b06 	br	14b0 <__alt_data_end+0xfffc2cb0>
    if (addr == 0x0119) return 0x18cb;
    16c4:	040632c4 	movi	r16,6347
    16c8:	003f7906 	br	14b0 <__alt_data_end+0xfffc2cb0>
    if (addr == 0x011A) return 0x2e02;
    16cc:	040b8084 	movi	r16,11778
    16d0:	003f7706 	br	14b0 <__alt_data_end+0xfffc2cb0>
    if (addr == 0x011B) return 0x0;
    if (addr == 0x011C) return 0xad43;
    16d4:	042b50d4 	movui	r16,44355
    16d8:	003f7506 	br	14b0 <__alt_data_end+0xfffc2cb0>
    if (addr == 0x011D) return 0x400;
    16dc:	04010004 	movi	r16,1024
    16e0:	003f7306 	br	14b0 <__alt_data_end+0xfffc2cb0>
    if (addr == 0x011E) return 0x780;
    16e4:	0401e004 	movi	r16,1920
    16e8:	003f7106 	br	14b0 <__alt_data_end+0xfffc2cb0>
    if (addr == 0x011F) return 0x3640;
    16ec:	040d9004 	movi	r16,13888
    16f0:	003f6f06 	br	14b0 <__alt_data_end+0xfffc2cb0>
    if (addr == 0x0120) return 0xb9ff;
    16f4:	042e7fd4 	movui	r16,47615
    16f8:	003f6d06 	br	14b0 <__alt_data_end+0xfffc2cb0>
    if (addr == 0x0121) return 0x3404;
    16fc:	040d0104 	movi	r16,13316
    1700:	003f6b06 	br	14b0 <__alt_data_end+0xfffc2cb0>
    if (addr == 0x0122) return 0x33f;
    1704:	0400cfc4 	movi	r16,831
    1708:	003f6906 	br	14b0 <__alt_data_end+0xfffc2cb0>
    if (addr == 0x0123) return 0x67b;
    170c:	04019ec4 	movi	r16,1659
    1710:	003f6706 	br	14b0 <__alt_data_end+0xfffc2cb0>
    if (addr == 0x0124) return 0x0;
    if (addr == 0x0125) return 0x9400;
    1714:	04250014 	movui	r16,37888
    1718:	003f6506 	br	14b0 <__alt_data_end+0xfffc2cb0>
    if (addr == 0x0126) return 0x12ff;
    171c:	0404bfc4 	movi	r16,4863
    1720:	003f6306 	br	14b0 <__alt_data_end+0xfffc2cb0>
    if (addr == 0x0200) return 0x81;
    1724:	04002044 	movi	r16,129
    1728:	003f6106 	br	14b0 <__alt_data_end+0xfffc2cb0>
    if (addr == 0x0201) return 0x7ff;
    172c:	0401ffc4 	movi	r16,2047
    1730:	003f5f06 	br	14b0 <__alt_data_end+0xfffc2cb0>
    if (addr == 0x0207) return 0x0;
    if (addr == 0x0208) return 0x0;
    if (addr == 0x0209) return 0x0;
    if (addr == 0x020a) return 0x0;
    if (addr == 0x020C) return 0x0;
    if (addr == 0x0240) return 0x20;
    1734:	04000804 	movi	r16,32
    1738:	003f5d06 	br	14b0 <__alt_data_end+0xfffc2cb0>
    if (addr == 0x05c8) return 0x0;
    if (addr == 0x05c9) return 0x0;
    if (addr == 0x05ca) return 0x0;
    if (addr == 0x05cb) return 0x0;
    if (addr == 0x05cc) return 0x0;
    if (addr == 0x0600) return 0xf00;
    173c:	0403c004 	movi	r16,3840
    1740:	003f5b06 	br	14b0 <__alt_data_end+0xfffc2cb0>
    if (addr == 0x0601) return 0x0;
    if (addr == 0x0602) return 0x2000;
    1744:	04080004 	movi	r16,8192
    1748:	003f5906 	br	14b0 <__alt_data_end+0xfffc2cb0>
    if (addr == 0x0116) return 0x8180;
    if (addr == 0x0117) return 0x280c;
    if (addr == 0x0118) return 0x18c;
    if (addr == 0x0119) return 0x18cb;
    if (addr == 0x011A) return 0x2e02;
    if (addr == 0x011B) return 0x0;
    174c:	0021883a 	mov	r16,zero
    1750:	003f5706 	br	14b0 <__alt_data_end+0xfffc2cb0>
    if (addr == 0x0602) return 0x2000;
    if (addr == 0x0603) return 0x0;
    if (addr == 0x0604) return 0x0;
    if (addr == 0x0605) return 0x0;
    if (addr == 0x0606) return 0x0;
    if (addr == 0x0640) return 0xa0;
    1754:	04002804 	movi	r16,160
    1758:	003f5506 	br	14b0 <__alt_data_end+0xfffc2cb0>
    if (addr == 0x0641) return 0x1020;
    175c:	04040804 	movi	r16,4128
    1760:	003f5306 	br	14b0 <__alt_data_end+0xfffc2cb0>
        regs->reg_0x0020_txen_b = (value >> 3) & 0x1;
        regs->reg_0x0020_txen_a = (value >> 2) & 0x1;
        regs->reg_0x0020_mac = (value >> 0) & 0x3;
        return;
    }
    if (addr == 0x0021)
    1764:	8d00241e 	bne	r17,r20,17f8 <set_addrs_to_default+0x6b8>
    {
        regs->reg_0x0021_tx_clk_pe = (value >> 11) & 0x1;
    1768:	8007d2fa 	srai	r3,r16,11
    176c:	18c0004c 	andi	r3,r3,1
    1770:	10c00f15 	stw	r3,60(r2)
        regs->reg_0x0021_rx_clk_pe = (value >> 10) & 0x1;
    1774:	8007d2ba 	srai	r3,r16,10
    1778:	18c0004c 	andi	r3,r3,1
    177c:	10c01015 	stw	r3,64(r2)
        regs->reg_0x0021_sda_pe = (value >> 9) & 0x1;
    1780:	8007d27a 	srai	r3,r16,9
    1784:	18c0004c 	andi	r3,r3,1
    1788:	10c01115 	stw	r3,68(r2)
        regs->reg_0x0021_sda_ds = (value >> 8) & 0x1;
    178c:	8007d23a 	srai	r3,r16,8
    1790:	18c0004c 	andi	r3,r3,1
    1794:	10c01215 	stw	r3,72(r2)
        regs->reg_0x0021_scl_pe = (value >> 7) & 0x1;
    1798:	8007d1fa 	srai	r3,r16,7
    179c:	18c0004c 	andi	r3,r3,1
    17a0:	10c01315 	stw	r3,76(r2)
        regs->reg_0x0021_scl_ds = (value >> 6) & 0x1;
    17a4:	8007d1ba 	srai	r3,r16,6
    17a8:	18c0004c 	andi	r3,r3,1
    17ac:	10c01415 	stw	r3,80(r2)
        regs->reg_0x0021_sdio_ds = (value >> 5) & 0x1;
    17b0:	8007d17a 	srai	r3,r16,5
    17b4:	18c0004c 	andi	r3,r3,1
    17b8:	10c01515 	stw	r3,84(r2)
        regs->reg_0x0021_sdio_pe = (value >> 4) & 0x1;
    17bc:	8007d13a 	srai	r3,r16,4
    17c0:	18c0004c 	andi	r3,r3,1
    17c4:	10c01615 	stw	r3,88(r2)
        regs->reg_0x0021_sdo_pe = (value >> 3) & 0x1;
    17c8:	8007d0fa 	srai	r3,r16,3
    17cc:	18c0004c 	andi	r3,r3,1
    17d0:	10c01715 	stw	r3,92(r2)
        regs->reg_0x0021_sclk_pe = (value >> 2) & 0x1;
    17d4:	8007d0ba 	srai	r3,r16,2
    17d8:	18c0004c 	andi	r3,r3,1
    17dc:	10c01815 	stw	r3,96(r2)
        regs->reg_0x0021_sen_pe = (value >> 1) & 0x1;
    17e0:	8007d07a 	srai	r3,r16,1
        regs->reg_0x0021_spimode = (value >> 0) & 0x1;
    17e4:	8400004c 	andi	r16,r16,1
    17e8:	14001a15 	stw	r16,104(r2)
        regs->reg_0x0021_scl_ds = (value >> 6) & 0x1;
        regs->reg_0x0021_sdio_ds = (value >> 5) & 0x1;
        regs->reg_0x0021_sdio_pe = (value >> 4) & 0x1;
        regs->reg_0x0021_sdo_pe = (value >> 3) & 0x1;
        regs->reg_0x0021_sclk_pe = (value >> 2) & 0x1;
        regs->reg_0x0021_sen_pe = (value >> 1) & 0x1;
    17ec:	18c0004c 	andi	r3,r3,1
    17f0:	10c01915 	stw	r3,100(r2)
    17f4:	003f5c06 	br	1568 <__alt_data_end+0xfffc2d68>
        regs->reg_0x0021_spimode = (value >> 0) & 0x1;
        return;
    }
    if (addr == 0x0022)
    17f8:	8d40241e 	bne	r17,r21,188c <set_addrs_to_default+0x74c>
    {
        regs->reg_0x0022_diq2_ds = (value >> 11) & 0x1;
    17fc:	8007d2fa 	srai	r3,r16,11
    1800:	18c0004c 	andi	r3,r3,1
    1804:	10c01b15 	stw	r3,108(r2)
        regs->reg_0x0022_diq2_pe = (value >> 10) & 0x1;
    1808:	8007d2ba 	srai	r3,r16,10
    180c:	18c0004c 	andi	r3,r3,1
    1810:	10c01c15 	stw	r3,112(r2)
        regs->reg_0x0022_iq_sel_en_2_pe = (value >> 9) & 0x1;
    1814:	8007d27a 	srai	r3,r16,9
    1818:	18c0004c 	andi	r3,r3,1
    181c:	10c01d15 	stw	r3,116(r2)
        regs->reg_0x0022_txnrx2_pe = (value >> 8) & 0x1;
    1820:	8007d23a 	srai	r3,r16,8
    1824:	18c0004c 	andi	r3,r3,1
    1828:	10c01e15 	stw	r3,120(r2)
        regs->reg_0x0022_fclk2_pe = (value >> 7) & 0x1;
    182c:	8007d1fa 	srai	r3,r16,7
    1830:	18c0004c 	andi	r3,r3,1
    1834:	10c01f15 	stw	r3,124(r2)
        regs->reg_0x0022_mclk2_pe = (value >> 6) & 0x1;
    1838:	8007d1ba 	srai	r3,r16,6
    183c:	18c0004c 	andi	r3,r3,1
    1840:	10c02015 	stw	r3,128(r2)
        regs->reg_0x0022_diq1_ds = (value >> 5) & 0x1;
    1844:	8007d17a 	srai	r3,r16,5
    1848:	18c0004c 	andi	r3,r3,1
    184c:	10c02115 	stw	r3,132(r2)
        regs->reg_0x0022_diq1_pe = (value >> 4) & 0x1;
    1850:	8007d13a 	srai	r3,r16,4
    1854:	18c0004c 	andi	r3,r3,1
    1858:	10c02215 	stw	r3,136(r2)
        regs->reg_0x0022_iq_sel_en_1_pe = (value >> 3) & 0x1;
    185c:	8007d0fa 	srai	r3,r16,3
    1860:	18c0004c 	andi	r3,r3,1
    1864:	10c02315 	stw	r3,140(r2)
        regs->reg_0x0022_txnrx1_pe = (value >> 2) & 0x1;
    1868:	8007d0ba 	srai	r3,r16,2
    186c:	18c0004c 	andi	r3,r3,1
    1870:	10c02415 	stw	r3,144(r2)
        regs->reg_0x0022_fclk1_pe = (value >> 1) & 0x1;
    1874:	8007d07a 	srai	r3,r16,1
        regs->reg_0x0022_mclk1_pe = (value >> 0) & 0x1;
    1878:	8400004c 	andi	r16,r16,1
    187c:	14002615 	stw	r16,152(r2)
        regs->reg_0x0022_mclk2_pe = (value >> 6) & 0x1;
        regs->reg_0x0022_diq1_ds = (value >> 5) & 0x1;
        regs->reg_0x0022_diq1_pe = (value >> 4) & 0x1;
        regs->reg_0x0022_iq_sel_en_1_pe = (value >> 3) & 0x1;
        regs->reg_0x0022_txnrx1_pe = (value >> 2) & 0x1;
        regs->reg_0x0022_fclk1_pe = (value >> 1) & 0x1;
    1880:	18c0004c 	andi	r3,r3,1
    1884:	10c02515 	stw	r3,148(r2)
    1888:	003f3706 	br	1568 <__alt_data_end+0xfffc2d68>
        regs->reg_0x0022_mclk1_pe = (value >> 0) & 0x1;
        return;
    }
    if (addr == 0x0023)
    188c:	8d802c1e 	bne	r17,r22,1940 <set_addrs_to_default+0x800>
    {
        regs->reg_0x0023_diqdirctr2 = (value >> 15) & 0x1;
    1890:	8007d3fa 	srai	r3,r16,15
    1894:	10c02715 	stw	r3,156(r2)
        regs->reg_0x0023_diqdir2 = (value >> 14) & 0x1;
    1898:	8007d3ba 	srai	r3,r16,14
    189c:	18c0004c 	andi	r3,r3,1
    18a0:	10c02815 	stw	r3,160(r2)
        regs->reg_0x0023_diqdirctr1 = (value >> 13) & 0x1;
    18a4:	8007d37a 	srai	r3,r16,13
    18a8:	18c0004c 	andi	r3,r3,1
    18ac:	10c02915 	stw	r3,164(r2)
        regs->reg_0x0023_diqdir1 = (value >> 12) & 0x1;
    18b0:	8007d33a 	srai	r3,r16,12
    18b4:	18c0004c 	andi	r3,r3,1
    18b8:	10c02a15 	stw	r3,168(r2)
        regs->reg_0x0023_enabledirctr2 = (value >> 11) & 0x1;
    18bc:	8007d2fa 	srai	r3,r16,11
    18c0:	18c0004c 	andi	r3,r3,1
    18c4:	10c02b15 	stw	r3,172(r2)
        regs->reg_0x0023_enabledir2 = (value >> 10) & 0x1;
    18c8:	8007d2ba 	srai	r3,r16,10
    18cc:	18c0004c 	andi	r3,r3,1
    18d0:	10c02c15 	stw	r3,176(r2)
        regs->reg_0x0023_enabledirctr1 = (value >> 9) & 0x1;
    18d4:	8007d27a 	srai	r3,r16,9
    18d8:	18c0004c 	andi	r3,r3,1
    18dc:	10c02d15 	stw	r3,180(r2)
        regs->reg_0x0023_enabledir1 = (value >> 8) & 0x1;
    18e0:	8007d23a 	srai	r3,r16,8
    18e4:	18c0004c 	andi	r3,r3,1
    18e8:	10c02e15 	stw	r3,184(r2)
        regs->reg_0x0023_mod_en = (value >> 6) & 0x1;
    18ec:	8007d1ba 	srai	r3,r16,6
    18f0:	18c0004c 	andi	r3,r3,1
    18f4:	10c02f15 	stw	r3,188(r2)
        regs->reg_0x0023_lml2_fidm = (value >> 5) & 0x1;
    18f8:	8007d17a 	srai	r3,r16,5
    18fc:	18c0004c 	andi	r3,r3,1
    1900:	10c03015 	stw	r3,192(r2)
        regs->reg_0x0023_lml2_rxntxiq = (value >> 4) & 0x1;
    1904:	8007d13a 	srai	r3,r16,4
    1908:	18c0004c 	andi	r3,r3,1
    190c:	10c03115 	stw	r3,196(r2)
        regs->reg_0x0023_lml2_mode = (value >> 3) & 0x1;
    1910:	8007d0fa 	srai	r3,r16,3
    1914:	18c0004c 	andi	r3,r3,1
    1918:	10c03215 	stw	r3,200(r2)
        regs->reg_0x0023_lml1_fidm = (value >> 2) & 0x1;
    191c:	8007d0ba 	srai	r3,r16,2
    1920:	18c0004c 	andi	r3,r3,1
    1924:	10c03315 	stw	r3,204(r2)
        regs->reg_0x0023_lml1_rxntxiq = (value >> 1) & 0x1;
    1928:	8007d07a 	srai	r3,r16,1
        regs->reg_0x0023_lml1_mode = (value >> 0) & 0x1;
    192c:	8400004c 	andi	r16,r16,1
    1930:	14003515 	stw	r16,212(r2)
        regs->reg_0x0023_mod_en = (value >> 6) & 0x1;
        regs->reg_0x0023_lml2_fidm = (value >> 5) & 0x1;
        regs->reg_0x0023_lml2_rxntxiq = (value >> 4) & 0x1;
        regs->reg_0x0023_lml2_mode = (value >> 3) & 0x1;
        regs->reg_0x0023_lml1_fidm = (value >> 2) & 0x1;
        regs->reg_0x0023_lml1_rxntxiq = (value >> 1) & 0x1;
    1934:	18c0004c 	andi	r3,r3,1
    1938:	10c03415 	stw	r3,208(r2)
    193c:	003f0a06 	br	1568 <__alt_data_end+0xfffc2d68>
        regs->reg_0x0023_lml1_mode = (value >> 0) & 0x1;
        return;
    }
    if (addr == 0x0024)
    1940:	00c00904 	movi	r3,36
    1944:	88c0171e 	bne	r17,r3,19a4 <set_addrs_to_default+0x864>
    {
        regs->reg_0x0024_lml1_s3s = (value >> 14) & 0x3;
    1948:	8007d3ba 	srai	r3,r16,14
    194c:	10c03615 	stw	r3,216(r2)
        regs->reg_0x0024_lml1_s2s = (value >> 12) & 0x3;
    1950:	8007d33a 	srai	r3,r16,12
    1954:	18c000cc 	andi	r3,r3,3
    1958:	10c03715 	stw	r3,220(r2)
        regs->reg_0x0024_lml1_s1s = (value >> 10) & 0x3;
    195c:	8007d2ba 	srai	r3,r16,10
    1960:	18c000cc 	andi	r3,r3,3
    1964:	10c03815 	stw	r3,224(r2)
        regs->reg_0x0024_lml1_s0s = (value >> 8) & 0x3;
    1968:	8007d23a 	srai	r3,r16,8
    196c:	18c000cc 	andi	r3,r3,3
    1970:	10c03915 	stw	r3,228(r2)
        regs->reg_0x0024_lml1_bqp = (value >> 6) & 0x3;
    1974:	8007d1ba 	srai	r3,r16,6
    1978:	18c000cc 	andi	r3,r3,3
    197c:	10c03a15 	stw	r3,232(r2)
        regs->reg_0x0024_lml1_bip = (value >> 4) & 0x3;
    1980:	8007d13a 	srai	r3,r16,4
    1984:	18c000cc 	andi	r3,r3,3
    1988:	10c03b15 	stw	r3,236(r2)
        regs->reg_0x0024_lml1_aqp = (value >> 2) & 0x3;
    198c:	8007d0ba 	srai	r3,r16,2
        regs->reg_0x0024_lml1_aip = (value >> 0) & 0x3;
    1990:	840000cc 	andi	r16,r16,3
    1994:	14003d15 	stw	r16,244(r2)
        regs->reg_0x0024_lml1_s2s = (value >> 12) & 0x3;
        regs->reg_0x0024_lml1_s1s = (value >> 10) & 0x3;
        regs->reg_0x0024_lml1_s0s = (value >> 8) & 0x3;
        regs->reg_0x0024_lml1_bqp = (value >> 6) & 0x3;
        regs->reg_0x0024_lml1_bip = (value >> 4) & 0x3;
        regs->reg_0x0024_lml1_aqp = (value >> 2) & 0x3;
    1998:	18c000cc 	andi	r3,r3,3
    199c:	10c03c15 	stw	r3,240(r2)
    19a0:	003ef106 	br	1568 <__alt_data_end+0xfffc2d68>
        regs->reg_0x0024_lml1_aip = (value >> 0) & 0x3;
        return;
    }
    if (addr == 0x0025)
    19a4:	00c00944 	movi	r3,37
    19a8:	88c0021e 	bne	r17,r3,19b4 <set_addrs_to_default+0x874>
    {
        regs->reg_0x0025_value = (value >> 0) & 0xffff;
    19ac:	14003e15 	stw	r16,248(r2)
    19b0:	003eed06 	br	1568 <__alt_data_end+0xfffc2d68>
        return;
    }
    if (addr == 0x0026)
    19b4:	00c00984 	movi	r3,38
    19b8:	88c0021e 	bne	r17,r3,19c4 <set_addrs_to_default+0x884>
    {
        regs->reg_0x0026_value = (value >> 0) & 0xffff;
    19bc:	14003f15 	stw	r16,252(r2)
    19c0:	003ee906 	br	1568 <__alt_data_end+0xfffc2d68>
        return;
    }
    if (addr == 0x0027)
    19c4:	00c009c4 	movi	r3,39
    19c8:	88c0171e 	bne	r17,r3,1a28 <set_addrs_to_default+0x8e8>
    {
        regs->reg_0x0027_lml2_s3s = (value >> 14) & 0x3;
    19cc:	8007d3ba 	srai	r3,r16,14
    19d0:	10c04015 	stw	r3,256(r2)
        regs->reg_0x0027_lml2_s2s = (value >> 12) & 0x3;
    19d4:	8007d33a 	srai	r3,r16,12
    19d8:	18c000cc 	andi	r3,r3,3
    19dc:	10c04115 	stw	r3,260(r2)
        regs->reg_0x0027_lml2_s1s = (value >> 10) & 0x3;
    19e0:	8007d2ba 	srai	r3,r16,10
    19e4:	18c000cc 	andi	r3,r3,3
    19e8:	10c04215 	stw	r3,264(r2)
        regs->reg_0x0027_lml2_s0s = (value >> 8) & 0x3;
    19ec:	8007d23a 	srai	r3,r16,8
    19f0:	18c000cc 	andi	r3,r3,3
    19f4:	10c04315 	stw	r3,268(r2)
        regs->reg_0x0027_lml2_bqp = (value >> 6) & 0x3;
    19f8:	8007d1ba 	srai	r3,r16,6
    19fc:	18c000cc 	andi	r3,r3,3
    1a00:	10c04415 	stw	r3,272(r2)
        regs->reg_0x0027_lml2_bip = (value >> 4) & 0x3;
    1a04:	8007d13a 	srai	r3,r16,4
    1a08:	18c000cc 	andi	r3,r3,3
    1a0c:	10c04515 	stw	r3,276(r2)
        regs->reg_0x0027_lml2_aqp = (value >> 2) & 0x3;
    1a10:	8007d0ba 	srai	r3,r16,2
        regs->reg_0x0027_lml2_aip = (value >> 0) & 0x3;
    1a14:	840000cc 	andi	r16,r16,3
    1a18:	14004715 	stw	r16,284(r2)
        regs->reg_0x0027_lml2_s2s = (value >> 12) & 0x3;
        regs->reg_0x0027_lml2_s1s = (value >> 10) & 0x3;
        regs->reg_0x0027_lml2_s0s = (value >> 8) & 0x3;
        regs->reg_0x0027_lml2_bqp = (value >> 6) & 0x3;
        regs->reg_0x0027_lml2_bip = (value >> 4) & 0x3;
        regs->reg_0x0027_lml2_aqp = (value >> 2) & 0x3;
    1a1c:	18c000cc 	andi	r3,r3,3
    1a20:	10c04615 	stw	r3,280(r2)
    1a24:	003ed006 	br	1568 <__alt_data_end+0xfffc2d68>
        regs->reg_0x0027_lml2_aip = (value >> 0) & 0x3;
        return;
    }
    if (addr == 0x0028)
    1a28:	00c00a04 	movi	r3,40
    1a2c:	88c0021e 	bne	r17,r3,1a38 <set_addrs_to_default+0x8f8>
    {
        regs->reg_0x0028_value = (value >> 0) & 0xffff;
    1a30:	14004815 	stw	r16,288(r2)
    1a34:	003ecc06 	br	1568 <__alt_data_end+0xfffc2d68>
        return;
    }
    if (addr == 0x0029)
    1a38:	00c00a44 	movi	r3,41
    1a3c:	88c0021e 	bne	r17,r3,1a48 <set_addrs_to_default+0x908>
    {
        regs->reg_0x0029_value = (value >> 0) & 0xffff;
    1a40:	14004915 	stw	r16,292(r2)
    1a44:	003ec806 	br	1568 <__alt_data_end+0xfffc2d68>
        return;
    }
    if (addr == 0x002A)
    1a48:	00c00a84 	movi	r3,42
    1a4c:	88c0121e 	bne	r17,r3,1a98 <set_addrs_to_default+0x958>
    {
        regs->reg_0x002a_rx_mux = (value >> 10) & 0x3;
    1a50:	8007d2ba 	srai	r3,r16,10
    1a54:	18c000cc 	andi	r3,r3,3
    1a58:	10c04a15 	stw	r3,296(r2)
        regs->reg_0x002a_tx_mux = (value >> 8) & 0x3;
    1a5c:	8007d23a 	srai	r3,r16,8
    1a60:	18c000cc 	andi	r3,r3,3
    1a64:	10c04b15 	stw	r3,300(r2)
        regs->reg_0x002a_txrdclk_mux = (value >> 6) & 0x3;
    1a68:	8007d1ba 	srai	r3,r16,6
    1a6c:	18c000cc 	andi	r3,r3,3
    1a70:	10c04c15 	stw	r3,304(r2)
        regs->reg_0x002a_txwrclk_mux = (value >> 4) & 0x3;
    1a74:	8007d13a 	srai	r3,r16,4
    1a78:	18c000cc 	andi	r3,r3,3
    1a7c:	10c04d15 	stw	r3,308(r2)
        regs->reg_0x002a_rxrdclk_mux = (value >> 2) & 0x3;
    1a80:	8007d0ba 	srai	r3,r16,2
        regs->reg_0x002a_rxwrclk_mux = (value >> 0) & 0x3;
    1a84:	840000cc 	andi	r16,r16,3
    1a88:	14004f15 	stw	r16,316(r2)
    {
        regs->reg_0x002a_rx_mux = (value >> 10) & 0x3;
        regs->reg_0x002a_tx_mux = (value >> 8) & 0x3;
        regs->reg_0x002a_txrdclk_mux = (value >> 6) & 0x3;
        regs->reg_0x002a_txwrclk_mux = (value >> 4) & 0x3;
        regs->reg_0x002a_rxrdclk_mux = (value >> 2) & 0x3;
    1a8c:	18c000cc 	andi	r3,r3,3
    1a90:	10c04e15 	stw	r3,312(r2)
    1a94:	003eb406 	br	1568 <__alt_data_end+0xfffc2d68>
        regs->reg_0x002a_rxwrclk_mux = (value >> 0) & 0x3;
        return;
    }
    if (addr == 0x002B)
    1a98:	00c00ac4 	movi	r3,43
    1a9c:	88c0111e 	bne	r17,r3,1ae4 <set_addrs_to_default+0x9a4>
    {
        regs->reg_0x002b_fclk2_inv = (value >> 15) & 0x1;
    1aa0:	8007d3fa 	srai	r3,r16,15
    1aa4:	10c05015 	stw	r3,320(r2)
        regs->reg_0x002b_fclk1_inv = (value >> 14) & 0x1;
    1aa8:	8007d3ba 	srai	r3,r16,14
    1aac:	18c0004c 	andi	r3,r3,1
    1ab0:	10c05115 	stw	r3,324(r2)
        regs->reg_0x002b_mclk2src = (value >> 4) & 0x3;
    1ab4:	8007d13a 	srai	r3,r16,4
    1ab8:	18c000cc 	andi	r3,r3,3
    1abc:	10c05215 	stw	r3,328(r2)
        regs->reg_0x002b_mclk1src = (value >> 2) & 0x3;
    1ac0:	8007d0ba 	srai	r3,r16,2
    1ac4:	18c000cc 	andi	r3,r3,3
    1ac8:	10c05315 	stw	r3,332(r2)
        regs->reg_0x002b_txdiven = (value >> 1) & 0x1;
    1acc:	8007d07a 	srai	r3,r16,1
        regs->reg_0x002b_rxdiven = (value >> 0) & 0x1;
    1ad0:	8400004c 	andi	r16,r16,1
    1ad4:	14005515 	stw	r16,340(r2)
    {
        regs->reg_0x002b_fclk2_inv = (value >> 15) & 0x1;
        regs->reg_0x002b_fclk1_inv = (value >> 14) & 0x1;
        regs->reg_0x002b_mclk2src = (value >> 4) & 0x3;
        regs->reg_0x002b_mclk1src = (value >> 2) & 0x3;
        regs->reg_0x002b_txdiven = (value >> 1) & 0x1;
    1ad8:	18c0004c 	andi	r3,r3,1
    1adc:	10c05415 	stw	r3,336(r2)
    1ae0:	003ea106 	br	1568 <__alt_data_end+0xfffc2d68>
        regs->reg_0x002b_rxdiven = (value >> 0) & 0x1;
        return;
    }
    if (addr == 0x002C)
    1ae4:	00c00b04 	movi	r3,44
    1ae8:	88c0051e 	bne	r17,r3,1b00 <set_addrs_to_default+0x9c0>
    {
        regs->reg_0x002c_txtspclk_div = (value >> 8) & 0xff;
    1aec:	8007d23a 	srai	r3,r16,8
        regs->reg_0x002c_rxtspclk_div = (value >> 0) & 0xff;
    1af0:	84003fcc 	andi	r16,r16,255
    1af4:	14005715 	stw	r16,348(r2)
        regs->reg_0x002b_rxdiven = (value >> 0) & 0x1;
        return;
    }
    if (addr == 0x002C)
    {
        regs->reg_0x002c_txtspclk_div = (value >> 8) & 0xff;
    1af8:	10c05615 	stw	r3,344(r2)
    1afc:	003e9a06 	br	1568 <__alt_data_end+0xfffc2d68>
        regs->reg_0x002c_rxtspclk_div = (value >> 0) & 0xff;
        return;
    }
    if (addr == 0x002E)
    1b00:	00c00b84 	movi	r3,46
    1b04:	88c0031e 	bne	r17,r3,1b14 <set_addrs_to_default+0x9d4>
    {
        regs->reg_0x002e_mimo_siso = (value >> 15) & 0x1;
    1b08:	8021d3fa 	srai	r16,r16,15
    1b0c:	14005815 	stw	r16,352(r2)
    1b10:	003e9506 	br	1568 <__alt_data_end+0xfffc2d68>
        return;
    }
    if (addr == 0x002F)
    1b14:	00c00bc4 	movi	r3,47
    1b18:	88c0081e 	bne	r17,r3,1b3c <set_addrs_to_default+0x9fc>
    {
        regs->reg_0x002f_ver = (value >> 11) & 0x1f;
    1b1c:	8007d2fa 	srai	r3,r16,11
    1b20:	10c05915 	stw	r3,356(r2)
        regs->reg_0x002f_rev = (value >> 6) & 0x1f;
    1b24:	8007d1ba 	srai	r3,r16,6
        regs->reg_0x002f_mask = (value >> 0) & 0x3f;
    1b28:	84000fcc 	andi	r16,r16,63
    1b2c:	14005b15 	stw	r16,364(r2)
        return;
    }
    if (addr == 0x002F)
    {
        regs->reg_0x002f_ver = (value >> 11) & 0x1f;
        regs->reg_0x002f_rev = (value >> 6) & 0x1f;
    1b30:	18c007cc 	andi	r3,r3,31
    1b34:	10c05a15 	stw	r3,360(r2)
    1b38:	003e8b06 	br	1568 <__alt_data_end+0xfffc2d68>
        regs->reg_0x002f_mask = (value >> 0) & 0x3f;
        return;
    }
    if (addr == 0x0081)
    1b3c:	00c02044 	movi	r3,129
    1b40:	88c00c1e 	bne	r17,r3,1b74 <set_addrs_to_default+0xa34>
    {
        regs->reg_0x0081_en_dir_ldo = (value >> 3) & 0x1;
    1b44:	8007d0fa 	srai	r3,r16,3
    1b48:	18c0004c 	andi	r3,r3,1
    1b4c:	10c05c15 	stw	r3,368(r2)
        regs->reg_0x0081_en_dir_cgen = (value >> 2) & 0x1;
    1b50:	8007d0ba 	srai	r3,r16,2
    1b54:	18c0004c 	andi	r3,r3,1
    1b58:	10c05d15 	stw	r3,372(r2)
        regs->reg_0x0081_en_dir_xbuf = (value >> 1) & 0x1;
    1b5c:	8007d07a 	srai	r3,r16,1
        regs->reg_0x0081_en_dir_afe = (value >> 0) & 0x1;
    1b60:	8400004c 	andi	r16,r16,1
    1b64:	14005f15 	stw	r16,380(r2)
    }
    if (addr == 0x0081)
    {
        regs->reg_0x0081_en_dir_ldo = (value >> 3) & 0x1;
        regs->reg_0x0081_en_dir_cgen = (value >> 2) & 0x1;
        regs->reg_0x0081_en_dir_xbuf = (value >> 1) & 0x1;
    1b68:	18c0004c 	andi	r3,r3,1
    1b6c:	10c05e15 	stw	r3,376(r2)
    1b70:	003e7d06 	br	1568 <__alt_data_end+0xfffc2d68>
        regs->reg_0x0081_en_dir_afe = (value >> 0) & 0x1;
        return;
    }
    if (addr == 0x0082)
    1b74:	00c02084 	movi	r3,130
    1b78:	88c01d1e 	bne	r17,r3,1bf0 <set_addrs_to_default+0xab0>
    {
        regs->reg_0x0082_isel_dac_afe = (value >> 13) & 0x7;
    1b7c:	8007d37a 	srai	r3,r16,13
    1b80:	10c06015 	stw	r3,384(r2)
        regs->reg_0x0082_mode_interleave_afe = (value >> 12) & 0x1;
    1b84:	8007d33a 	srai	r3,r16,12
    1b88:	18c0004c 	andi	r3,r3,1
    1b8c:	10c06115 	stw	r3,388(r2)
        regs->reg_0x0082_mux_afe_1 = (value >> 10) & 0x3;
    1b90:	8007d2ba 	srai	r3,r16,10
    1b94:	18c000cc 	andi	r3,r3,3
    1b98:	10c06215 	stw	r3,392(r2)
        regs->reg_0x0082_mux_afe_2 = (value >> 8) & 0x3;
    1b9c:	8007d23a 	srai	r3,r16,8
    1ba0:	18c000cc 	andi	r3,r3,3
    1ba4:	10c06315 	stw	r3,396(r2)
        regs->reg_0x0082_pd_afe = (value >> 5) & 0x1;
    1ba8:	8007d17a 	srai	r3,r16,5
    1bac:	18c0004c 	andi	r3,r3,1
    1bb0:	10c06415 	stw	r3,400(r2)
        regs->reg_0x0082_pd_rx_afe1 = (value >> 4) & 0x1;
    1bb4:	8007d13a 	srai	r3,r16,4
    1bb8:	18c0004c 	andi	r3,r3,1
    1bbc:	10c06515 	stw	r3,404(r2)
        regs->reg_0x0082_pd_rx_afe2 = (value >> 3) & 0x1;
    1bc0:	8007d0fa 	srai	r3,r16,3
    1bc4:	18c0004c 	andi	r3,r3,1
    1bc8:	10c06615 	stw	r3,408(r2)
        regs->reg_0x0082_pd_tx_afe1 = (value >> 2) & 0x1;
    1bcc:	8007d0ba 	srai	r3,r16,2
    1bd0:	18c0004c 	andi	r3,r3,1
    1bd4:	10c06715 	stw	r3,412(r2)
        regs->reg_0x0082_pd_tx_afe2 = (value >> 1) & 0x1;
    1bd8:	8007d07a 	srai	r3,r16,1
        regs->reg_0x0082_en_g_afe = (value >> 0) & 0x1;
    1bdc:	8400004c 	andi	r16,r16,1
    1be0:	14006915 	stw	r16,420(r2)
        regs->reg_0x0082_mux_afe_2 = (value >> 8) & 0x3;
        regs->reg_0x0082_pd_afe = (value >> 5) & 0x1;
        regs->reg_0x0082_pd_rx_afe1 = (value >> 4) & 0x1;
        regs->reg_0x0082_pd_rx_afe2 = (value >> 3) & 0x1;
        regs->reg_0x0082_pd_tx_afe1 = (value >> 2) & 0x1;
        regs->reg_0x0082_pd_tx_afe2 = (value >> 1) & 0x1;
    1be4:	18c0004c 	andi	r3,r3,1
    1be8:	10c06815 	stw	r3,416(r2)
    1bec:	003e5e06 	br	1568 <__alt_data_end+0xfffc2d68>
        regs->reg_0x0082_en_g_afe = (value >> 0) & 0x1;
        return;
    }
    if (addr == 0x0084)
    1bf0:	00c02104 	movi	r3,132
    1bf4:	88c0151e 	bne	r17,r3,1c4c <set_addrs_to_default+0xb0c>
    {
        regs->reg_0x0084_mux_bias_out = (value >> 11) & 0x3;
    1bf8:	8007d2fa 	srai	r3,r16,11
    1bfc:	18c000cc 	andi	r3,r3,3
    1c00:	10c06a15 	stw	r3,424(r2)
        regs->reg_0x0084_rp_calib_bias = (value >> 6) & 0x1f;
    1c04:	8007d1ba 	srai	r3,r16,6
    1c08:	18c007cc 	andi	r3,r3,31
    1c0c:	10c06b15 	stw	r3,428(r2)
        regs->reg_0x0084_pd_frp_bias = (value >> 4) & 0x1;
    1c10:	8007d13a 	srai	r3,r16,4
    1c14:	18c0004c 	andi	r3,r3,1
    1c18:	10c06c15 	stw	r3,432(r2)
        regs->reg_0x0084_pd_f_bias = (value >> 3) & 0x1;
    1c1c:	8007d0fa 	srai	r3,r16,3
    1c20:	18c0004c 	andi	r3,r3,1
    1c24:	10c06d15 	stw	r3,436(r2)
        regs->reg_0x0084_pd_ptrp_bias = (value >> 2) & 0x1;
    1c28:	8007d0ba 	srai	r3,r16,2
    1c2c:	18c0004c 	andi	r3,r3,1
    1c30:	10c06e15 	stw	r3,440(r2)
        regs->reg_0x0084_pd_pt_bias = (value >> 1) & 0x1;
    1c34:	8007d07a 	srai	r3,r16,1
        regs->reg_0x0084_pd_bias_master = (value >> 0) & 0x1;
    1c38:	8400004c 	andi	r16,r16,1
    1c3c:	14007015 	stw	r16,448(r2)
        regs->reg_0x0084_mux_bias_out = (value >> 11) & 0x3;
        regs->reg_0x0084_rp_calib_bias = (value >> 6) & 0x1f;
        regs->reg_0x0084_pd_frp_bias = (value >> 4) & 0x1;
        regs->reg_0x0084_pd_f_bias = (value >> 3) & 0x1;
        regs->reg_0x0084_pd_ptrp_bias = (value >> 2) & 0x1;
        regs->reg_0x0084_pd_pt_bias = (value >> 1) & 0x1;
    1c40:	18c0004c 	andi	r3,r3,1
    1c44:	10c06f15 	stw	r3,444(r2)
    1c48:	003e4706 	br	1568 <__alt_data_end+0xfffc2d68>
        regs->reg_0x0084_pd_bias_master = (value >> 0) & 0x1;
        return;
    }
    if (addr == 0x0085)
    1c4c:	00c02144 	movi	r3,133
    1c50:	88c01b1e 	bne	r17,r3,1cc0 <set_addrs_to_default+0xb80>
    {
        regs->reg_0x0085_slfb_xbuf_rx = (value >> 8) & 0x1;
    1c54:	8007d23a 	srai	r3,r16,8
    1c58:	18c0004c 	andi	r3,r3,1
    1c5c:	10c07115 	stw	r3,452(r2)
        regs->reg_0x0085_slfb_xbuf_tx = (value >> 7) & 0x1;
    1c60:	8007d1fa 	srai	r3,r16,7
    1c64:	18c0004c 	andi	r3,r3,1
    1c68:	10c07215 	stw	r3,456(r2)
        regs->reg_0x0085_byp_xbuf_rx = (value >> 6) & 0x1;
    1c6c:	8007d1ba 	srai	r3,r16,6
    1c70:	18c0004c 	andi	r3,r3,1
    1c74:	10c07315 	stw	r3,460(r2)
        regs->reg_0x0085_byp_xbuf_tx = (value >> 5) & 0x1;
    1c78:	8007d17a 	srai	r3,r16,5
    1c7c:	18c0004c 	andi	r3,r3,1
    1c80:	10c07415 	stw	r3,464(r2)
        regs->reg_0x0085_en_out2_xbuf_tx = (value >> 4) & 0x1;
    1c84:	8007d13a 	srai	r3,r16,4
    1c88:	18c0004c 	andi	r3,r3,1
    1c8c:	10c07515 	stw	r3,468(r2)
        regs->reg_0x0085_en_tbufin_xbuf_rx = (value >> 3) & 0x1;
    1c90:	8007d0fa 	srai	r3,r16,3
    1c94:	18c0004c 	andi	r3,r3,1
    1c98:	10c07615 	stw	r3,472(r2)
        regs->reg_0x0085_pd_xbuf_rx = (value >> 2) & 0x1;
    1c9c:	8007d0ba 	srai	r3,r16,2
    1ca0:	18c0004c 	andi	r3,r3,1
    1ca4:	10c07715 	stw	r3,476(r2)
        regs->reg_0x0085_pd_xbuf_tx = (value >> 1) & 0x1;
    1ca8:	8007d07a 	srai	r3,r16,1
        regs->reg_0x0085_en_g_xbuf = (value >> 0) & 0x1;
    1cac:	8400004c 	andi	r16,r16,1
    1cb0:	14007915 	stw	r16,484(r2)
        regs->reg_0x0085_byp_xbuf_rx = (value >> 6) & 0x1;
        regs->reg_0x0085_byp_xbuf_tx = (value >> 5) & 0x1;
        regs->reg_0x0085_en_out2_xbuf_tx = (value >> 4) & 0x1;
        regs->reg_0x0085_en_tbufin_xbuf_rx = (value >> 3) & 0x1;
        regs->reg_0x0085_pd_xbuf_rx = (value >> 2) & 0x1;
        regs->reg_0x0085_pd_xbuf_tx = (value >> 1) & 0x1;
    1cb4:	18c0004c 	andi	r3,r3,1
    1cb8:	10c07815 	stw	r3,480(r2)
    1cbc:	003e2a06 	br	1568 <__alt_data_end+0xfffc2d68>
        regs->reg_0x0085_en_g_xbuf = (value >> 0) & 0x1;
        return;
    }
    if (addr == 0x0086)
    1cc0:	00c02184 	movi	r3,134
    1cc4:	88c0261e 	bne	r17,r3,1d60 <set_addrs_to_default+0xc20>
    {
        regs->reg_0x0086_spdup_vco_cgen = (value >> 15) & 0x1;
    1cc8:	8007d3fa 	srai	r3,r16,15
    1ccc:	10c07a15 	stw	r3,488(r2)
        regs->reg_0x0086_reset_n_cgen = (value >> 14) & 0x1;
    1cd0:	8007d3ba 	srai	r3,r16,14
    1cd4:	18c0004c 	andi	r3,r3,1
    1cd8:	10c07b15 	stw	r3,492(r2)
        regs->reg_0x0086_en_adcclkh_clkgn = (value >> 11) & 0x1;
    1cdc:	8007d2fa 	srai	r3,r16,11
    1ce0:	18c0004c 	andi	r3,r3,1
    1ce4:	10c07c15 	stw	r3,496(r2)
        regs->reg_0x0086_en_coarse_cklgen = (value >> 10) & 0x1;
    1ce8:	8007d2ba 	srai	r3,r16,10
    1cec:	18c0004c 	andi	r3,r3,1
    1cf0:	10c07d15 	stw	r3,500(r2)
        regs->reg_0x0086_en_intonly_sdm_cgen = (value >> 9) & 0x1;
    1cf4:	8007d27a 	srai	r3,r16,9
    1cf8:	18c0004c 	andi	r3,r3,1
    1cfc:	10c07e15 	stw	r3,504(r2)
        regs->reg_0x0086_en_sdm_clk_cgen = (value >> 8) & 0x1;
    1d00:	8007d23a 	srai	r3,r16,8
    1d04:	18c0004c 	andi	r3,r3,1
    1d08:	10c07f15 	stw	r3,508(r2)
        regs->reg_0x0086_pd_cp_cgen = (value >> 6) & 0x1;
    1d0c:	8007d1ba 	srai	r3,r16,6
    1d10:	18c0004c 	andi	r3,r3,1
    1d14:	10c08015 	stw	r3,512(r2)
        regs->reg_0x0086_pd_fdiv_fb_cgen = (value >> 5) & 0x1;
    1d18:	8007d17a 	srai	r3,r16,5
    1d1c:	18c0004c 	andi	r3,r3,1
    1d20:	10c08115 	stw	r3,516(r2)
        regs->reg_0x0086_pd_fdiv_o_cgen = (value >> 4) & 0x1;
    1d24:	8007d13a 	srai	r3,r16,4
    1d28:	18c0004c 	andi	r3,r3,1
    1d2c:	10c08215 	stw	r3,520(r2)
        regs->reg_0x0086_pd_sdm_cgen = (value >> 3) & 0x1;
    1d30:	8007d0fa 	srai	r3,r16,3
    1d34:	18c0004c 	andi	r3,r3,1
    1d38:	10c08315 	stw	r3,524(r2)
        regs->reg_0x0086_pd_vco_cgen = (value >> 2) & 0x1;
    1d3c:	8007d0ba 	srai	r3,r16,2
    1d40:	18c0004c 	andi	r3,r3,1
    1d44:	10c08415 	stw	r3,528(r2)
        regs->reg_0x0086_pd_vco_comp_cgen = (value >> 1) & 0x1;
    1d48:	8007d07a 	srai	r3,r16,1
        regs->reg_0x0086_en_g_cgen = (value >> 0) & 0x1;
    1d4c:	8400004c 	andi	r16,r16,1
    1d50:	14008615 	stw	r16,536(r2)
        regs->reg_0x0086_pd_cp_cgen = (value >> 6) & 0x1;
        regs->reg_0x0086_pd_fdiv_fb_cgen = (value >> 5) & 0x1;
        regs->reg_0x0086_pd_fdiv_o_cgen = (value >> 4) & 0x1;
        regs->reg_0x0086_pd_sdm_cgen = (value >> 3) & 0x1;
        regs->reg_0x0086_pd_vco_cgen = (value >> 2) & 0x1;
        regs->reg_0x0086_pd_vco_comp_cgen = (value >> 1) & 0x1;
    1d54:	18c0004c 	andi	r3,r3,1
    1d58:	10c08515 	stw	r3,532(r2)
    1d5c:	003e0206 	br	1568 <__alt_data_end+0xfffc2d68>
        regs->reg_0x0086_en_g_cgen = (value >> 0) & 0x1;
        return;
    }
    if (addr == 0x0087)
    1d60:	00c021c4 	movi	r3,135
    1d64:	88c0021e 	bne	r17,r3,1d70 <set_addrs_to_default+0xc30>
    {
        regs->reg_0x0087_frac_sdm_cgen = (value >> 0) & 0xffff;
    1d68:	14008715 	stw	r16,540(r2)
    1d6c:	003dfe06 	br	1568 <__alt_data_end+0xfffc2d68>
        return;
    }
    if (addr == 0x0088)
    1d70:	00c02204 	movi	r3,136
    1d74:	88c0061e 	bne	r17,r3,1d90 <set_addrs_to_default+0xc50>
    {
        regs->reg_0x0088_int_sdm_cgen = (value >> 4) & 0x3ff;
    1d78:	8007d13a 	srai	r3,r16,4
        regs->reg_0x0088_frac_sdm_cgen = (value >> 0) & 0xf;
    1d7c:	840003cc 	andi	r16,r16,15
    1d80:	14008915 	stw	r16,548(r2)
        regs->reg_0x0087_frac_sdm_cgen = (value >> 0) & 0xffff;
        return;
    }
    if (addr == 0x0088)
    {
        regs->reg_0x0088_int_sdm_cgen = (value >> 4) & 0x3ff;
    1d84:	18c0ffcc 	andi	r3,r3,1023
    1d88:	10c08815 	stw	r3,544(r2)
    1d8c:	003df606 	br	1568 <__alt_data_end+0xfffc2d68>
        regs->reg_0x0088_frac_sdm_cgen = (value >> 0) & 0xf;
        return;
    }
    if (addr == 0x0089)
    1d90:	00c02244 	movi	r3,137
    1d94:	88c0111e 	bne	r17,r3,1ddc <set_addrs_to_default+0xc9c>
    {
        regs->reg_0x0089_rev_sdmclk_cgen = (value >> 15) & 0x1;
    1d98:	8007d3fa 	srai	r3,r16,15
    1d9c:	10c08a15 	stw	r3,552(r2)
        regs->reg_0x0089_sel_sdmclk_cgen = (value >> 14) & 0x1;
    1da0:	8007d3ba 	srai	r3,r16,14
    1da4:	18c0004c 	andi	r3,r3,1
    1da8:	10c08b15 	stw	r3,556(r2)
        regs->reg_0x0089_sx_dither_en_cgen = (value >> 13) & 0x1;
    1dac:	8007d37a 	srai	r3,r16,13
    1db0:	18c0004c 	andi	r3,r3,1
    1db4:	10c08c15 	stw	r3,560(r2)
        regs->reg_0x0089_clkh_ov_clkl_cgen = (value >> 11) & 0x3;
    1db8:	8007d2fa 	srai	r3,r16,11
    1dbc:	18c000cc 	andi	r3,r3,3
    1dc0:	10c08d15 	stw	r3,564(r2)
        regs->reg_0x0089_div_outch_cgen = (value >> 3) & 0xff;
    1dc4:	8007d0fa 	srai	r3,r16,3
        regs->reg_0x0089_tst_cgen = (value >> 0) & 0x7;
    1dc8:	840001cc 	andi	r16,r16,7
    1dcc:	14008f15 	stw	r16,572(r2)
    {
        regs->reg_0x0089_rev_sdmclk_cgen = (value >> 15) & 0x1;
        regs->reg_0x0089_sel_sdmclk_cgen = (value >> 14) & 0x1;
        regs->reg_0x0089_sx_dither_en_cgen = (value >> 13) & 0x1;
        regs->reg_0x0089_clkh_ov_clkl_cgen = (value >> 11) & 0x3;
        regs->reg_0x0089_div_outch_cgen = (value >> 3) & 0xff;
    1dd0:	18c03fcc 	andi	r3,r3,255
    1dd4:	10c08e15 	stw	r3,568(r2)
    1dd8:	003de306 	br	1568 <__alt_data_end+0xfffc2d68>
        regs->reg_0x0089_tst_cgen = (value >> 0) & 0x7;
        return;
    }
    if (addr == 0x008A)
    1ddc:	00c02284 	movi	r3,138
    1de0:	88c00f1e 	bne	r17,r3,1e20 <set_addrs_to_default+0xce0>
    {
        regs->reg_0x008a_rev_clkdac_cgen = (value >> 14) & 0x1;
    1de4:	8007d3ba 	srai	r3,r16,14
    1de8:	18c0004c 	andi	r3,r3,1
    1dec:	10c09015 	stw	r3,576(r2)
        regs->reg_0x008a_rev_clkadc_cgen = (value >> 13) & 0x1;
    1df0:	8007d37a 	srai	r3,r16,13
    1df4:	18c0004c 	andi	r3,r3,1
    1df8:	10c09115 	stw	r3,580(r2)
        regs->reg_0x008a_revph_pfd_cgen = (value >> 12) & 0x1;
    1dfc:	8007d33a 	srai	r3,r16,12
    1e00:	18c0004c 	andi	r3,r3,1
    1e04:	10c09215 	stw	r3,584(r2)
        regs->reg_0x008a_ioffset_cp_cgen = (value >> 6) & 0x3f;
    1e08:	8007d1ba 	srai	r3,r16,6
        regs->reg_0x008a_ipulse_cp_cgen = (value >> 0) & 0x3f;
    1e0c:	84000fcc 	andi	r16,r16,63
    1e10:	14009415 	stw	r16,592(r2)
    if (addr == 0x008A)
    {
        regs->reg_0x008a_rev_clkdac_cgen = (value >> 14) & 0x1;
        regs->reg_0x008a_rev_clkadc_cgen = (value >> 13) & 0x1;
        regs->reg_0x008a_revph_pfd_cgen = (value >> 12) & 0x1;
        regs->reg_0x008a_ioffset_cp_cgen = (value >> 6) & 0x3f;
    1e14:	18c00fcc 	andi	r3,r3,63
    1e18:	10c09315 	stw	r3,588(r2)
    1e1c:	003dd206 	br	1568 <__alt_data_end+0xfffc2d68>
        regs->reg_0x008a_ipulse_cp_cgen = (value >> 0) & 0x3f;
        return;
    }
    if (addr == 0x008B)
    1e20:	00c022c4 	movi	r3,139
    1e24:	88c0091e 	bne	r17,r3,1e4c <set_addrs_to_default+0xd0c>
    {
        regs->reg_0x008b_ict_vco_cgen = (value >> 9) & 0x1f;
    1e28:	8007d27a 	srai	r3,r16,9
    1e2c:	18c007cc 	andi	r3,r3,31
    1e30:	10c09515 	stw	r3,596(r2)
        regs->reg_0x008b_csw_vco_cgen = (value >> 1) & 0xff;
    1e34:	8007d07a 	srai	r3,r16,1
        regs->reg_0x008b_coarse_start_cgen = (value >> 0) & 0x1;
    1e38:	8400004c 	andi	r16,r16,1
    1e3c:	14009715 	stw	r16,604(r2)
        return;
    }
    if (addr == 0x008B)
    {
        regs->reg_0x008b_ict_vco_cgen = (value >> 9) & 0x1f;
        regs->reg_0x008b_csw_vco_cgen = (value >> 1) & 0xff;
    1e40:	18c03fcc 	andi	r3,r3,255
    1e44:	10c09615 	stw	r3,600(r2)
    1e48:	003dc706 	br	1568 <__alt_data_end+0xfffc2d68>
        regs->reg_0x008b_coarse_start_cgen = (value >> 0) & 0x1;
        return;
    }
    if (addr == 0x008C)
    1e4c:	00c02304 	movi	r3,140
    1e50:	88c0141e 	bne	r17,r3,1ea4 <set_addrs_to_default+0xd64>
    {
        regs->reg_0x008c_coarse_stepdone_cgen = (value >> 15) & 0x1;
    1e54:	8007d3fa 	srai	r3,r16,15
    1e58:	10c09815 	stw	r3,608(r2)
        regs->reg_0x008c_coarsepll_compo_cgen = (value >> 14) & 0x1;
    1e5c:	8007d3ba 	srai	r3,r16,14
    1e60:	18c0004c 	andi	r3,r3,1
    1e64:	10c09915 	stw	r3,612(r2)
        regs->reg_0x008c_vco_cmpho_cgen = (value >> 13) & 0x1;
    1e68:	8007d37a 	srai	r3,r16,13
    1e6c:	18c0004c 	andi	r3,r3,1
    1e70:	10c09a15 	stw	r3,616(r2)
        regs->reg_0x008c_vco_cmplo_cgen = (value >> 12) & 0x1;
    1e74:	8007d33a 	srai	r3,r16,12
    1e78:	18c0004c 	andi	r3,r3,1
    1e7c:	10c09b15 	stw	r3,620(r2)
        regs->reg_0x008c_cp2_cgen = (value >> 8) & 0xf;
    1e80:	8007d23a 	srai	r3,r16,8
    1e84:	18c003cc 	andi	r3,r3,15
    1e88:	10c09c15 	stw	r3,624(r2)
        regs->reg_0x008c_cp3_cgen = (value >> 4) & 0xf;
    1e8c:	8007d13a 	srai	r3,r16,4
        regs->reg_0x008c_cz_cgen = (value >> 0) & 0xf;
    1e90:	840003cc 	andi	r16,r16,15
    1e94:	14009e15 	stw	r16,632(r2)
        regs->reg_0x008c_coarse_stepdone_cgen = (value >> 15) & 0x1;
        regs->reg_0x008c_coarsepll_compo_cgen = (value >> 14) & 0x1;
        regs->reg_0x008c_vco_cmpho_cgen = (value >> 13) & 0x1;
        regs->reg_0x008c_vco_cmplo_cgen = (value >> 12) & 0x1;
        regs->reg_0x008c_cp2_cgen = (value >> 8) & 0xf;
        regs->reg_0x008c_cp3_cgen = (value >> 4) & 0xf;
    1e98:	18c003cc 	andi	r3,r3,15
    1e9c:	10c09d15 	stw	r3,628(r2)
    1ea0:	003db106 	br	1568 <__alt_data_end+0xfffc2d68>
        regs->reg_0x008c_cz_cgen = (value >> 0) & 0xf;
        return;
    }
    if (addr == 0x008D)
    1ea4:	00c02344 	movi	r3,141
    1ea8:	88c0031e 	bne	r17,r3,1eb8 <set_addrs_to_default+0xd78>
    {
        regs->reg_0x008d_resrv_cgn = (value >> 0) & 0x7;
    1eac:	840001cc 	andi	r16,r16,7
    1eb0:	14009f15 	stw	r16,636(r2)
    1eb4:	003dac06 	br	1568 <__alt_data_end+0xfffc2d68>
        return;
    }
    if (addr == 0x0092)
    1eb8:	00c02484 	movi	r3,146
    1ebc:	88c02f1e 	bne	r17,r3,1f7c <set_addrs_to_default+0xe3c>
    {
        regs->reg_0x0092_en_ldo_dig = (value >> 15) & 0x1;
    1ec0:	8007d3fa 	srai	r3,r16,15
    1ec4:	10c0a015 	stw	r3,640(r2)
        regs->reg_0x0092_en_ldo_diggn = (value >> 14) & 0x1;
    1ec8:	8007d3ba 	srai	r3,r16,14
    1ecc:	18c0004c 	andi	r3,r3,1
    1ed0:	10c0a115 	stw	r3,644(r2)
        regs->reg_0x0092_en_ldo_digsxr = (value >> 13) & 0x1;
    1ed4:	8007d37a 	srai	r3,r16,13
    1ed8:	18c0004c 	andi	r3,r3,1
    1edc:	10c0a215 	stw	r3,648(r2)
        regs->reg_0x0092_en_ldo_digsxt = (value >> 12) & 0x1;
    1ee0:	8007d33a 	srai	r3,r16,12
    1ee4:	18c0004c 	andi	r3,r3,1
    1ee8:	10c0a315 	stw	r3,652(r2)
        regs->reg_0x0092_en_ldo_divgn = (value >> 11) & 0x1;
    1eec:	8007d2fa 	srai	r3,r16,11
    1ef0:	18c0004c 	andi	r3,r3,1
    1ef4:	10c0a415 	stw	r3,656(r2)
        regs->reg_0x0092_en_ldo_divsxr = (value >> 10) & 0x1;
    1ef8:	8007d2ba 	srai	r3,r16,10
    1efc:	18c0004c 	andi	r3,r3,1
    1f00:	10c0a515 	stw	r3,660(r2)
        regs->reg_0x0092_en_ldo_divsxt = (value >> 9) & 0x1;
    1f04:	8007d27a 	srai	r3,r16,9
    1f08:	18c0004c 	andi	r3,r3,1
    1f0c:	10c0a615 	stw	r3,664(r2)
        regs->reg_0x0092_en_ldo_lna12 = (value >> 8) & 0x1;
    1f10:	8007d23a 	srai	r3,r16,8
    1f14:	18c0004c 	andi	r3,r3,1
    1f18:	10c0a715 	stw	r3,668(r2)
        regs->reg_0x0092_en_ldo_lna14 = (value >> 7) & 0x1;
    1f1c:	8007d1fa 	srai	r3,r16,7
    1f20:	18c0004c 	andi	r3,r3,1
    1f24:	10c0a815 	stw	r3,672(r2)
        regs->reg_0x0092_en_ldo_mxrfe = (value >> 6) & 0x1;
    1f28:	8007d1ba 	srai	r3,r16,6
    1f2c:	18c0004c 	andi	r3,r3,1
    1f30:	10c0a915 	stw	r3,676(r2)
        regs->reg_0x0092_en_ldo_rbb = (value >> 5) & 0x1;
    1f34:	8007d17a 	srai	r3,r16,5
    1f38:	18c0004c 	andi	r3,r3,1
    1f3c:	10c0aa15 	stw	r3,680(r2)
        regs->reg_0x0092_en_ldo_rxbuf = (value >> 4) & 0x1;
    1f40:	8007d13a 	srai	r3,r16,4
    1f44:	18c0004c 	andi	r3,r3,1
    1f48:	10c0ab15 	stw	r3,684(r2)
        regs->reg_0x0092_en_ldo_tbb = (value >> 3) & 0x1;
    1f4c:	8007d0fa 	srai	r3,r16,3
    1f50:	18c0004c 	andi	r3,r3,1
    1f54:	10c0ac15 	stw	r3,688(r2)
        regs->reg_0x0092_en_ldo_tia12 = (value >> 2) & 0x1;
    1f58:	8007d0ba 	srai	r3,r16,2
    1f5c:	18c0004c 	andi	r3,r3,1
    1f60:	10c0ad15 	stw	r3,692(r2)
        regs->reg_0x0092_en_ldo_tia14 = (value >> 1) & 0x1;
    1f64:	8007d07a 	srai	r3,r16,1
        regs->reg_0x0092_en_g_ldo = (value >> 0) & 0x1;
    1f68:	8400004c 	andi	r16,r16,1
    1f6c:	1400af15 	stw	r16,700(r2)
        regs->reg_0x0092_en_ldo_mxrfe = (value >> 6) & 0x1;
        regs->reg_0x0092_en_ldo_rbb = (value >> 5) & 0x1;
        regs->reg_0x0092_en_ldo_rxbuf = (value >> 4) & 0x1;
        regs->reg_0x0092_en_ldo_tbb = (value >> 3) & 0x1;
        regs->reg_0x0092_en_ldo_tia12 = (value >> 2) & 0x1;
        regs->reg_0x0092_en_ldo_tia14 = (value >> 1) & 0x1;
    1f70:	18c0004c 	andi	r3,r3,1
    1f74:	10c0ae15 	stw	r3,696(r2)
    1f78:	003d7b06 	br	1568 <__alt_data_end+0xfffc2d68>
        regs->reg_0x0092_en_g_ldo = (value >> 0) & 0x1;
        return;
    }
    if (addr == 0x0093)
    1f7c:	00c024c4 	movi	r3,147
    1f80:	88c02f1e 	bne	r17,r3,2040 <set_addrs_to_default+0xf00>
    {
        regs->reg_0x0093_en_loadimp_ldo_tlob = (value >> 15) & 0x1;
    1f84:	8007d3fa 	srai	r3,r16,15
    1f88:	10c0b015 	stw	r3,704(r2)
        regs->reg_0x0093_en_loadimp_ldo_tpad = (value >> 14) & 0x1;
    1f8c:	8007d3ba 	srai	r3,r16,14
    1f90:	18c0004c 	andi	r3,r3,1
    1f94:	10c0b115 	stw	r3,708(r2)
        regs->reg_0x0093_en_loadimp_ldo_txbuf = (value >> 13) & 0x1;
    1f98:	8007d37a 	srai	r3,r16,13
    1f9c:	18c0004c 	andi	r3,r3,1
    1fa0:	10c0b215 	stw	r3,712(r2)
        regs->reg_0x0093_en_loadimp_ldo_vcogn = (value >> 12) & 0x1;
    1fa4:	8007d33a 	srai	r3,r16,12
    1fa8:	18c0004c 	andi	r3,r3,1
    1fac:	10c0b315 	stw	r3,716(r2)
        regs->reg_0x0093_en_loadimp_ldo_vcosxr = (value >> 11) & 0x1;
    1fb0:	8007d2fa 	srai	r3,r16,11
    1fb4:	18c0004c 	andi	r3,r3,1
    1fb8:	10c0b415 	stw	r3,720(r2)
        regs->reg_0x0093_en_loadimp_ldo_vcosxt = (value >> 10) & 0x1;
    1fbc:	8007d2ba 	srai	r3,r16,10
    1fc0:	18c0004c 	andi	r3,r3,1
    1fc4:	10c0b515 	stw	r3,724(r2)
        regs->reg_0x0093_en_ldo_afe = (value >> 9) & 0x1;
    1fc8:	8007d27a 	srai	r3,r16,9
    1fcc:	18c0004c 	andi	r3,r3,1
    1fd0:	10c0b615 	stw	r3,728(r2)
        regs->reg_0x0093_en_ldo_cpgn = (value >> 8) & 0x1;
    1fd4:	8007d23a 	srai	r3,r16,8
    1fd8:	18c0004c 	andi	r3,r3,1
    1fdc:	10c0b715 	stw	r3,732(r2)
        regs->reg_0x0093_en_ldo_cpsxr = (value >> 7) & 0x1;
    1fe0:	8007d1fa 	srai	r3,r16,7
    1fe4:	18c0004c 	andi	r3,r3,1
    1fe8:	10c0b815 	stw	r3,736(r2)
        regs->reg_0x0093_en_ldo_tlob = (value >> 6) & 0x1;
    1fec:	8007d1ba 	srai	r3,r16,6
    1ff0:	18c0004c 	andi	r3,r3,1
    1ff4:	10c0b915 	stw	r3,740(r2)
        regs->reg_0x0093_en_ldo_tpad = (value >> 5) & 0x1;
    1ff8:	8007d17a 	srai	r3,r16,5
    1ffc:	18c0004c 	andi	r3,r3,1
    2000:	10c0ba15 	stw	r3,744(r2)
        regs->reg_0x0093_en_ldo_txbuf = (value >> 4) & 0x1;
    2004:	8007d13a 	srai	r3,r16,4
    2008:	18c0004c 	andi	r3,r3,1
    200c:	10c0bb15 	stw	r3,748(r2)
        regs->reg_0x0093_en_ldo_vcogn = (value >> 3) & 0x1;
    2010:	8007d0fa 	srai	r3,r16,3
    2014:	18c0004c 	andi	r3,r3,1
    2018:	10c0bc15 	stw	r3,752(r2)
        regs->reg_0x0093_en_ldo_vcosxr = (value >> 2) & 0x1;
    201c:	8007d0ba 	srai	r3,r16,2
    2020:	18c0004c 	andi	r3,r3,1
    2024:	10c0bd15 	stw	r3,756(r2)
        regs->reg_0x0093_en_ldo_vcosxt = (value >> 1) & 0x1;
    2028:	8007d07a 	srai	r3,r16,1
        regs->reg_0x0093_en_ldo_cpsxt = (value >> 0) & 0x1;
    202c:	8400004c 	andi	r16,r16,1
    2030:	1400bf15 	stw	r16,764(r2)
        regs->reg_0x0093_en_ldo_tlob = (value >> 6) & 0x1;
        regs->reg_0x0093_en_ldo_tpad = (value >> 5) & 0x1;
        regs->reg_0x0093_en_ldo_txbuf = (value >> 4) & 0x1;
        regs->reg_0x0093_en_ldo_vcogn = (value >> 3) & 0x1;
        regs->reg_0x0093_en_ldo_vcosxr = (value >> 2) & 0x1;
        regs->reg_0x0093_en_ldo_vcosxt = (value >> 1) & 0x1;
    2034:	18c0004c 	andi	r3,r3,1
    2038:	10c0be15 	stw	r3,760(r2)
    203c:	003d4a06 	br	1568 <__alt_data_end+0xfffc2d68>
        regs->reg_0x0093_en_ldo_cpsxt = (value >> 0) & 0x1;
        return;
    }
    if (addr == 0x0094)
    2040:	00c02504 	movi	r3,148
    2044:	88c02f1e 	bne	r17,r3,2104 <set_addrs_to_default+0xfc4>
    {
        regs->reg_0x0094_en_loadimp_ldo_cpsxt = (value >> 15) & 0x1;
    2048:	8007d3fa 	srai	r3,r16,15
    204c:	10c0c015 	stw	r3,768(r2)
        regs->reg_0x0094_en_loadimp_ldo_dig = (value >> 14) & 0x1;
    2050:	8007d3ba 	srai	r3,r16,14
    2054:	18c0004c 	andi	r3,r3,1
    2058:	10c0c115 	stw	r3,772(r2)
        regs->reg_0x0094_en_loadimp_ldo_diggn = (value >> 13) & 0x1;
    205c:	8007d37a 	srai	r3,r16,13
    2060:	18c0004c 	andi	r3,r3,1
    2064:	10c0c215 	stw	r3,776(r2)
        regs->reg_0x0094_en_loadimp_ldo_digsxr = (value >> 12) & 0x1;
    2068:	8007d33a 	srai	r3,r16,12
    206c:	18c0004c 	andi	r3,r3,1
    2070:	10c0c315 	stw	r3,780(r2)
        regs->reg_0x0094_en_loadimp_ldo_digsxt = (value >> 11) & 0x1;
    2074:	8007d2fa 	srai	r3,r16,11
    2078:	18c0004c 	andi	r3,r3,1
    207c:	10c0c415 	stw	r3,784(r2)
        regs->reg_0x0094_en_loadimp_ldo_divgn = (value >> 10) & 0x1;
    2080:	8007d2ba 	srai	r3,r16,10
    2084:	18c0004c 	andi	r3,r3,1
    2088:	10c0c515 	stw	r3,788(r2)
        regs->reg_0x0094_en_loadimp_ldo_divsxr = (value >> 9) & 0x1;
    208c:	8007d27a 	srai	r3,r16,9
    2090:	18c0004c 	andi	r3,r3,1
    2094:	10c0c615 	stw	r3,792(r2)
        regs->reg_0x0094_en_loadimp_ldo_divsxt = (value >> 8) & 0x1;
    2098:	8007d23a 	srai	r3,r16,8
    209c:	18c0004c 	andi	r3,r3,1
    20a0:	10c0c715 	stw	r3,796(r2)
        regs->reg_0x0094_en_loadimp_ldo_lna12 = (value >> 7) & 0x1;
    20a4:	8007d1fa 	srai	r3,r16,7
    20a8:	18c0004c 	andi	r3,r3,1
    20ac:	10c0c815 	stw	r3,800(r2)
        regs->reg_0x0094_en_loadimp_ldo_lna14 = (value >> 6) & 0x1;
    20b0:	8007d1ba 	srai	r3,r16,6
    20b4:	18c0004c 	andi	r3,r3,1
    20b8:	10c0c915 	stw	r3,804(r2)
        regs->reg_0x0094_en_loadimp_ldo_mxrfe = (value >> 5) & 0x1;
    20bc:	8007d17a 	srai	r3,r16,5
    20c0:	18c0004c 	andi	r3,r3,1
    20c4:	10c0ca15 	stw	r3,808(r2)
        regs->reg_0x0094_en_loadimp_ldo_rbb = (value >> 4) & 0x1;
    20c8:	8007d13a 	srai	r3,r16,4
    20cc:	18c0004c 	andi	r3,r3,1
    20d0:	10c0cb15 	stw	r3,812(r2)
        regs->reg_0x0094_en_loadimp_ldo_rxbuf = (value >> 3) & 0x1;
    20d4:	8007d0fa 	srai	r3,r16,3
    20d8:	18c0004c 	andi	r3,r3,1
    20dc:	10c0cc15 	stw	r3,816(r2)
        regs->reg_0x0094_en_loadimp_ldo_tbb = (value >> 2) & 0x1;
    20e0:	8007d0ba 	srai	r3,r16,2
    20e4:	18c0004c 	andi	r3,r3,1
    20e8:	10c0cd15 	stw	r3,820(r2)
        regs->reg_0x0094_en_loadimp_ldo_tia12 = (value >> 1) & 0x1;
    20ec:	8007d07a 	srai	r3,r16,1
        regs->reg_0x0094_en_loadimp_ldo_tia14 = (value >> 0) & 0x1;
    20f0:	8400004c 	andi	r16,r16,1
    20f4:	1400cf15 	stw	r16,828(r2)
        regs->reg_0x0094_en_loadimp_ldo_lna14 = (value >> 6) & 0x1;
        regs->reg_0x0094_en_loadimp_ldo_mxrfe = (value >> 5) & 0x1;
        regs->reg_0x0094_en_loadimp_ldo_rbb = (value >> 4) & 0x1;
        regs->reg_0x0094_en_loadimp_ldo_rxbuf = (value >> 3) & 0x1;
        regs->reg_0x0094_en_loadimp_ldo_tbb = (value >> 2) & 0x1;
        regs->reg_0x0094_en_loadimp_ldo_tia12 = (value >> 1) & 0x1;
    20f8:	18c0004c 	andi	r3,r3,1
    20fc:	10c0ce15 	stw	r3,824(r2)
    2100:	003d1906 	br	1568 <__alt_data_end+0xfffc2d68>
        regs->reg_0x0094_en_loadimp_ldo_tia14 = (value >> 0) & 0x1;
        return;
    }
    if (addr == 0x0095)
    2104:	00c02544 	movi	r3,149
    2108:	88c0231e 	bne	r17,r3,2198 <set_addrs_to_default+0x1058>
    {
        regs->reg_0x0095_byp_ldo_tbb = (value >> 15) & 0x1;
    210c:	8007d3fa 	srai	r3,r16,15
    2110:	10c0d015 	stw	r3,832(r2)
        regs->reg_0x0095_byp_ldo_tia12 = (value >> 14) & 0x1;
    2114:	8007d3ba 	srai	r3,r16,14
    2118:	18c0004c 	andi	r3,r3,1
    211c:	10c0d115 	stw	r3,836(r2)
        regs->reg_0x0095_byp_ldo_tia14 = (value >> 13) & 0x1;
    2120:	8007d37a 	srai	r3,r16,13
    2124:	18c0004c 	andi	r3,r3,1
    2128:	10c0d215 	stw	r3,840(r2)
        regs->reg_0x0095_byp_ldo_tlob = (value >> 12) & 0x1;
    212c:	8007d33a 	srai	r3,r16,12
    2130:	18c0004c 	andi	r3,r3,1
    2134:	10c0d315 	stw	r3,844(r2)
        regs->reg_0x0095_byp_ldo_tpad = (value >> 11) & 0x1;
    2138:	8007d2fa 	srai	r3,r16,11
    213c:	18c0004c 	andi	r3,r3,1
    2140:	10c0d415 	stw	r3,848(r2)
        regs->reg_0x0095_byp_ldo_txbuf = (value >> 10) & 0x1;
    2144:	8007d2ba 	srai	r3,r16,10
    2148:	18c0004c 	andi	r3,r3,1
    214c:	10c0d515 	stw	r3,852(r2)
        regs->reg_0x0095_byp_ldo_vcogn = (value >> 9) & 0x1;
    2150:	8007d27a 	srai	r3,r16,9
    2154:	18c0004c 	andi	r3,r3,1
    2158:	10c0d615 	stw	r3,856(r2)
        regs->reg_0x0095_byp_ldo_vcosxr = (value >> 8) & 0x1;
    215c:	8007d23a 	srai	r3,r16,8
    2160:	18c0004c 	andi	r3,r3,1
    2164:	10c0d715 	stw	r3,860(r2)
        regs->reg_0x0095_byp_ldo_vcosxt = (value >> 7) & 0x1;
    2168:	8007d1fa 	srai	r3,r16,7
    216c:	18c0004c 	andi	r3,r3,1
    2170:	10c0d815 	stw	r3,864(r2)
        regs->reg_0x0095_en_loadimp_ldo_afe = (value >> 2) & 0x1;
    2174:	8007d0ba 	srai	r3,r16,2
    2178:	18c0004c 	andi	r3,r3,1
    217c:	10c0d915 	stw	r3,868(r2)
        regs->reg_0x0095_en_loadimp_ldo_cpgn = (value >> 1) & 0x1;
    2180:	8007d07a 	srai	r3,r16,1
        regs->reg_0x0095_en_loadimp_ldo_cpsxr = (value >> 0) & 0x1;
    2184:	8400004c 	andi	r16,r16,1
    2188:	1400db15 	stw	r16,876(r2)
        regs->reg_0x0095_byp_ldo_txbuf = (value >> 10) & 0x1;
        regs->reg_0x0095_byp_ldo_vcogn = (value >> 9) & 0x1;
        regs->reg_0x0095_byp_ldo_vcosxr = (value >> 8) & 0x1;
        regs->reg_0x0095_byp_ldo_vcosxt = (value >> 7) & 0x1;
        regs->reg_0x0095_en_loadimp_ldo_afe = (value >> 2) & 0x1;
        regs->reg_0x0095_en_loadimp_ldo_cpgn = (value >> 1) & 0x1;
    218c:	18c0004c 	andi	r3,r3,1
    2190:	10c0da15 	stw	r3,872(r2)
    2194:	003cf406 	br	1568 <__alt_data_end+0xfffc2d68>
        regs->reg_0x0095_en_loadimp_ldo_cpsxr = (value >> 0) & 0x1;
        return;
    }
    if (addr == 0x0096)
    2198:	00c02584 	movi	r3,150
    219c:	88c02f1e 	bne	r17,r3,225c <set_addrs_to_default+0x111c>
    {
        regs->reg_0x0096_byp_ldo_afe = (value >> 15) & 0x1;
    21a0:	8007d3fa 	srai	r3,r16,15
    21a4:	10c0dc15 	stw	r3,880(r2)
        regs->reg_0x0096_byp_ldo_cpgn = (value >> 14) & 0x1;
    21a8:	8007d3ba 	srai	r3,r16,14
    21ac:	18c0004c 	andi	r3,r3,1
    21b0:	10c0dd15 	stw	r3,884(r2)
        regs->reg_0x0096_byp_ldo_cpsxr = (value >> 13) & 0x1;
    21b4:	8007d37a 	srai	r3,r16,13
    21b8:	18c0004c 	andi	r3,r3,1
    21bc:	10c0de15 	stw	r3,888(r2)
        regs->reg_0x0096_byp_ldo_cpsxt = (value >> 12) & 0x1;
    21c0:	8007d33a 	srai	r3,r16,12
    21c4:	18c0004c 	andi	r3,r3,1
    21c8:	10c0df15 	stw	r3,892(r2)
        regs->reg_0x0096_byp_ldo_dig = (value >> 11) & 0x1;
    21cc:	8007d2fa 	srai	r3,r16,11
    21d0:	18c0004c 	andi	r3,r3,1
    21d4:	10c0e015 	stw	r3,896(r2)
        regs->reg_0x0096_byp_ldo_diggn = (value >> 10) & 0x1;
    21d8:	8007d2ba 	srai	r3,r16,10
    21dc:	18c0004c 	andi	r3,r3,1
    21e0:	10c0e115 	stw	r3,900(r2)
        regs->reg_0x0096_byp_ldo_digsxr = (value >> 9) & 0x1;
    21e4:	8007d27a 	srai	r3,r16,9
    21e8:	18c0004c 	andi	r3,r3,1
    21ec:	10c0e215 	stw	r3,904(r2)
        regs->reg_0x0096_byp_ldo_digsxt = (value >> 8) & 0x1;
    21f0:	8007d23a 	srai	r3,r16,8
    21f4:	18c0004c 	andi	r3,r3,1
    21f8:	10c0e315 	stw	r3,908(r2)
        regs->reg_0x0096_byp_ldo_divgn = (value >> 7) & 0x1;
    21fc:	8007d1fa 	srai	r3,r16,7
    2200:	18c0004c 	andi	r3,r3,1
    2204:	10c0e415 	stw	r3,912(r2)
        regs->reg_0x0096_byp_ldo_divsxr = (value >> 6) & 0x1;
    2208:	8007d1ba 	srai	r3,r16,6
    220c:	18c0004c 	andi	r3,r3,1
    2210:	10c0e515 	stw	r3,916(r2)
        regs->reg_0x0096_byp_ldo_divsxt = (value >> 5) & 0x1;
    2214:	8007d17a 	srai	r3,r16,5
    2218:	18c0004c 	andi	r3,r3,1
    221c:	10c0e615 	stw	r3,920(r2)
        regs->reg_0x0096_byp_ldo_lna12 = (value >> 4) & 0x1;
    2220:	8007d13a 	srai	r3,r16,4
    2224:	18c0004c 	andi	r3,r3,1
    2228:	10c0e715 	stw	r3,924(r2)
        regs->reg_0x0096_byp_ldo_lna14 = (value >> 3) & 0x1;
    222c:	8007d0fa 	srai	r3,r16,3
    2230:	18c0004c 	andi	r3,r3,1
    2234:	10c0e815 	stw	r3,928(r2)
        regs->reg_0x0096_byp_ldo_mxrfe = (value >> 2) & 0x1;
    2238:	8007d0ba 	srai	r3,r16,2
    223c:	18c0004c 	andi	r3,r3,1
    2240:	10c0e915 	stw	r3,932(r2)
        regs->reg_0x0096_byp_ldo_rbb = (value >> 1) & 0x1;
    2244:	8007d07a 	srai	r3,r16,1
        regs->reg_0x0096_byp_ldo_rxbuf = (value >> 0) & 0x1;
    2248:	8400004c 	andi	r16,r16,1
    224c:	1400eb15 	stw	r16,940(r2)
        regs->reg_0x0096_byp_ldo_divsxr = (value >> 6) & 0x1;
        regs->reg_0x0096_byp_ldo_divsxt = (value >> 5) & 0x1;
        regs->reg_0x0096_byp_ldo_lna12 = (value >> 4) & 0x1;
        regs->reg_0x0096_byp_ldo_lna14 = (value >> 3) & 0x1;
        regs->reg_0x0096_byp_ldo_mxrfe = (value >> 2) & 0x1;
        regs->reg_0x0096_byp_ldo_rbb = (value >> 1) & 0x1;
    2250:	18c0004c 	andi	r3,r3,1
    2254:	10c0ea15 	stw	r3,936(r2)
    2258:	003cc306 	br	1568 <__alt_data_end+0xfffc2d68>
        regs->reg_0x0096_byp_ldo_rxbuf = (value >> 0) & 0x1;
        return;
    }
    if (addr == 0x0097)
    225c:	00c025c4 	movi	r3,151
    2260:	88c02f1e 	bne	r17,r3,2320 <set_addrs_to_default+0x11e0>
    {
        regs->reg_0x0097_spdup_ldo_divsxr = (value >> 15) & 0x1;
    2264:	8007d3fa 	srai	r3,r16,15
    2268:	10c0ec15 	stw	r3,944(r2)
        regs->reg_0x0097_spdup_ldo_divsxt = (value >> 14) & 0x1;
    226c:	8007d3ba 	srai	r3,r16,14
    2270:	18c0004c 	andi	r3,r3,1
    2274:	10c0ed15 	stw	r3,948(r2)
        regs->reg_0x0097_spdup_ldo_lna12 = (value >> 13) & 0x1;
    2278:	8007d37a 	srai	r3,r16,13
    227c:	18c0004c 	andi	r3,r3,1
    2280:	10c0ee15 	stw	r3,952(r2)
        regs->reg_0x0097_spdup_ldo_lna14 = (value >> 12) & 0x1;
    2284:	8007d33a 	srai	r3,r16,12
    2288:	18c0004c 	andi	r3,r3,1
    228c:	10c0ef15 	stw	r3,956(r2)
        regs->reg_0x0097_spdup_ldo_mxrfe = (value >> 11) & 0x1;
    2290:	8007d2fa 	srai	r3,r16,11
    2294:	18c0004c 	andi	r3,r3,1
    2298:	10c0f015 	stw	r3,960(r2)
        regs->reg_0x0097_spdup_ldo_rbb = (value >> 10) & 0x1;
    229c:	8007d2ba 	srai	r3,r16,10
    22a0:	18c0004c 	andi	r3,r3,1
    22a4:	10c0f115 	stw	r3,964(r2)
        regs->reg_0x0097_spdup_ldo_rxbuf = (value >> 9) & 0x1;
    22a8:	8007d27a 	srai	r3,r16,9
    22ac:	18c0004c 	andi	r3,r3,1
    22b0:	10c0f215 	stw	r3,968(r2)
        regs->reg_0x0097_spdup_ldo_tbb = (value >> 8) & 0x1;
    22b4:	8007d23a 	srai	r3,r16,8
    22b8:	18c0004c 	andi	r3,r3,1
    22bc:	10c0f315 	stw	r3,972(r2)
        regs->reg_0x0097_spdup_ldo_tia12 = (value >> 7) & 0x1;
    22c0:	8007d1fa 	srai	r3,r16,7
    22c4:	18c0004c 	andi	r3,r3,1
    22c8:	10c0f415 	stw	r3,976(r2)
        regs->reg_0x0097_spdup_ldo_tia14 = (value >> 6) & 0x1;
    22cc:	8007d1ba 	srai	r3,r16,6
    22d0:	18c0004c 	andi	r3,r3,1
    22d4:	10c0f515 	stw	r3,980(r2)
        regs->reg_0x0097_spdup_ldo_tlob = (value >> 5) & 0x1;
    22d8:	8007d17a 	srai	r3,r16,5
    22dc:	18c0004c 	andi	r3,r3,1
    22e0:	10c0f615 	stw	r3,984(r2)
        regs->reg_0x0097_spdup_ldo_tpad = (value >> 4) & 0x1;
    22e4:	8007d13a 	srai	r3,r16,4
    22e8:	18c0004c 	andi	r3,r3,1
    22ec:	10c0f715 	stw	r3,988(r2)
        regs->reg_0x0097_spdup_ldo_txbuf = (value >> 3) & 0x1;
    22f0:	8007d0fa 	srai	r3,r16,3
    22f4:	18c0004c 	andi	r3,r3,1
    22f8:	10c0f815 	stw	r3,992(r2)
        regs->reg_0x0097_spdup_ldo_vcogn = (value >> 2) & 0x1;
    22fc:	8007d0ba 	srai	r3,r16,2
    2300:	18c0004c 	andi	r3,r3,1
    2304:	10c0f915 	stw	r3,996(r2)
        regs->reg_0x0097_spdup_ldo_vcosxr = (value >> 1) & 0x1;
    2308:	8007d07a 	srai	r3,r16,1
        regs->reg_0x0097_spdup_ldo_vcosxt = (value >> 0) & 0x1;
    230c:	8400004c 	andi	r16,r16,1
    2310:	1400fb15 	stw	r16,1004(r2)
        regs->reg_0x0097_spdup_ldo_tia14 = (value >> 6) & 0x1;
        regs->reg_0x0097_spdup_ldo_tlob = (value >> 5) & 0x1;
        regs->reg_0x0097_spdup_ldo_tpad = (value >> 4) & 0x1;
        regs->reg_0x0097_spdup_ldo_txbuf = (value >> 3) & 0x1;
        regs->reg_0x0097_spdup_ldo_vcogn = (value >> 2) & 0x1;
        regs->reg_0x0097_spdup_ldo_vcosxr = (value >> 1) & 0x1;
    2314:	18c0004c 	andi	r3,r3,1
    2318:	10c0fa15 	stw	r3,1000(r2)
    231c:	003c9206 	br	1568 <__alt_data_end+0xfffc2d68>
        regs->reg_0x0097_spdup_ldo_vcosxt = (value >> 0) & 0x1;
        return;
    }
    if (addr == 0x0098)
    2320:	00c02604 	movi	r3,152
    2324:	88c01b1e 	bne	r17,r3,2394 <set_addrs_to_default+0x1254>
    {
        regs->reg_0x0098_spdup_ldo_afe = (value >> 8) & 0x1;
    2328:	8007d23a 	srai	r3,r16,8
    232c:	18c0004c 	andi	r3,r3,1
    2330:	10c0fc15 	stw	r3,1008(r2)
        regs->reg_0x0098_spdup_ldo_cpgn = (value >> 7) & 0x1;
    2334:	8007d1fa 	srai	r3,r16,7
    2338:	18c0004c 	andi	r3,r3,1
    233c:	10c0fd15 	stw	r3,1012(r2)
        regs->reg_0x0098_spdup_ldo_cpsxr = (value >> 6) & 0x1;
    2340:	8007d1ba 	srai	r3,r16,6
    2344:	18c0004c 	andi	r3,r3,1
    2348:	10c0fe15 	stw	r3,1016(r2)
        regs->reg_0x0098_spdup_ldo_cpsxt = (value >> 5) & 0x1;
    234c:	8007d17a 	srai	r3,r16,5
    2350:	18c0004c 	andi	r3,r3,1
    2354:	10c0ff15 	stw	r3,1020(r2)
        regs->reg_0x0098_spdup_ldo_dig = (value >> 4) & 0x1;
    2358:	8007d13a 	srai	r3,r16,4
    235c:	18c0004c 	andi	r3,r3,1
    2360:	10c10015 	stw	r3,1024(r2)
        regs->reg_0x0098_spdup_ldo_diggn = (value >> 3) & 0x1;
    2364:	8007d0fa 	srai	r3,r16,3
    2368:	18c0004c 	andi	r3,r3,1
    236c:	10c10115 	stw	r3,1028(r2)
        regs->reg_0x0098_spdup_ldo_digsxr = (value >> 2) & 0x1;
    2370:	8007d0ba 	srai	r3,r16,2
    2374:	18c0004c 	andi	r3,r3,1
    2378:	10c10215 	stw	r3,1032(r2)
        regs->reg_0x0098_spdup_ldo_digsxt = (value >> 1) & 0x1;
    237c:	8007d07a 	srai	r3,r16,1
        regs->reg_0x0098_spdup_ldo_divgn = (value >> 0) & 0x1;
    2380:	8400004c 	andi	r16,r16,1
    2384:	14010415 	stw	r16,1040(r2)
        regs->reg_0x0098_spdup_ldo_cpsxr = (value >> 6) & 0x1;
        regs->reg_0x0098_spdup_ldo_cpsxt = (value >> 5) & 0x1;
        regs->reg_0x0098_spdup_ldo_dig = (value >> 4) & 0x1;
        regs->reg_0x0098_spdup_ldo_diggn = (value >> 3) & 0x1;
        regs->reg_0x0098_spdup_ldo_digsxr = (value >> 2) & 0x1;
        regs->reg_0x0098_spdup_ldo_digsxt = (value >> 1) & 0x1;
    2388:	18c0004c 	andi	r3,r3,1
    238c:	10c10315 	stw	r3,1036(r2)
    2390:	003c7506 	br	1568 <__alt_data_end+0xfffc2d68>
        regs->reg_0x0098_spdup_ldo_divgn = (value >> 0) & 0x1;
        return;
    }
    if (addr == 0x0099)
    2394:	00c02644 	movi	r3,153
    2398:	88c0051e 	bne	r17,r3,23b0 <set_addrs_to_default+0x1270>
    {
        regs->reg_0x0099_rdiv_vcosxr = (value >> 8) & 0xff;
    239c:	8007d23a 	srai	r3,r16,8
        regs->reg_0x0099_rdiv_vcosxt = (value >> 0) & 0xff;
    23a0:	84003fcc 	andi	r16,r16,255
    23a4:	14010615 	stw	r16,1048(r2)
        regs->reg_0x0098_spdup_ldo_divgn = (value >> 0) & 0x1;
        return;
    }
    if (addr == 0x0099)
    {
        regs->reg_0x0099_rdiv_vcosxr = (value >> 8) & 0xff;
    23a8:	10c10515 	stw	r3,1044(r2)
    23ac:	003c6e06 	br	1568 <__alt_data_end+0xfffc2d68>
        regs->reg_0x0099_rdiv_vcosxt = (value >> 0) & 0xff;
        return;
    }
    if (addr == 0x009A)
    23b0:	00c02684 	movi	r3,154
    23b4:	88c0051e 	bne	r17,r3,23cc <set_addrs_to_default+0x128c>
    {
        regs->reg_0x009a_rdiv_txbuf = (value >> 8) & 0xff;
    23b8:	8007d23a 	srai	r3,r16,8
        regs->reg_0x009a_rdiv_vcogn = (value >> 0) & 0xff;
    23bc:	84003fcc 	andi	r16,r16,255
    23c0:	14010815 	stw	r16,1056(r2)
        regs->reg_0x0099_rdiv_vcosxt = (value >> 0) & 0xff;
        return;
    }
    if (addr == 0x009A)
    {
        regs->reg_0x009a_rdiv_txbuf = (value >> 8) & 0xff;
    23c4:	10c10715 	stw	r3,1052(r2)
    23c8:	003c6706 	br	1568 <__alt_data_end+0xfffc2d68>
        regs->reg_0x009a_rdiv_vcogn = (value >> 0) & 0xff;
        return;
    }
    if (addr == 0x009B)
    23cc:	00c026c4 	movi	r3,155
    23d0:	88c0051e 	bne	r17,r3,23e8 <set_addrs_to_default+0x12a8>
    {
        regs->reg_0x009b_rdiv_tlob = (value >> 8) & 0xff;
    23d4:	8007d23a 	srai	r3,r16,8
        regs->reg_0x009b_rdiv_tpad = (value >> 0) & 0xff;
    23d8:	84003fcc 	andi	r16,r16,255
    23dc:	14010a15 	stw	r16,1064(r2)
        regs->reg_0x009a_rdiv_vcogn = (value >> 0) & 0xff;
        return;
    }
    if (addr == 0x009B)
    {
        regs->reg_0x009b_rdiv_tlob = (value >> 8) & 0xff;
    23e0:	10c10915 	stw	r3,1060(r2)
    23e4:	003c6006 	br	1568 <__alt_data_end+0xfffc2d68>
        regs->reg_0x009b_rdiv_tpad = (value >> 0) & 0xff;
        return;
    }
    if (addr == 0x009C)
    23e8:	00c02704 	movi	r3,156
    23ec:	88c0051e 	bne	r17,r3,2404 <set_addrs_to_default+0x12c4>
    {
        regs->reg_0x009c_rdiv_tia12 = (value >> 8) & 0xff;
    23f0:	8007d23a 	srai	r3,r16,8
        regs->reg_0x009c_rdiv_tia14 = (value >> 0) & 0xff;
    23f4:	84003fcc 	andi	r16,r16,255
    23f8:	14010c15 	stw	r16,1072(r2)
        regs->reg_0x009b_rdiv_tpad = (value >> 0) & 0xff;
        return;
    }
    if (addr == 0x009C)
    {
        regs->reg_0x009c_rdiv_tia12 = (value >> 8) & 0xff;
    23fc:	10c10b15 	stw	r3,1068(r2)
    2400:	003c5906 	br	1568 <__alt_data_end+0xfffc2d68>
        regs->reg_0x009c_rdiv_tia14 = (value >> 0) & 0xff;
        return;
    }
    if (addr == 0x009D)
    2404:	00c02744 	movi	r3,157
    2408:	88c0051e 	bne	r17,r3,2420 <set_addrs_to_default+0x12e0>
    {
        regs->reg_0x009d_rdiv_rxbuf = (value >> 8) & 0xff;
    240c:	8007d23a 	srai	r3,r16,8
        regs->reg_0x009d_rdiv_tbb = (value >> 0) & 0xff;
    2410:	84003fcc 	andi	r16,r16,255
    2414:	14010e15 	stw	r16,1080(r2)
        regs->reg_0x009c_rdiv_tia14 = (value >> 0) & 0xff;
        return;
    }
    if (addr == 0x009D)
    {
        regs->reg_0x009d_rdiv_rxbuf = (value >> 8) & 0xff;
    2418:	10c10d15 	stw	r3,1076(r2)
    241c:	003c5206 	br	1568 <__alt_data_end+0xfffc2d68>
        regs->reg_0x009d_rdiv_tbb = (value >> 0) & 0xff;
        return;
    }
    if (addr == 0x009E)
    2420:	00c02784 	movi	r3,158
    2424:	88c0051e 	bne	r17,r3,243c <set_addrs_to_default+0x12fc>
    {
        regs->reg_0x009e_rdiv_mxrfe = (value >> 8) & 0xff;
    2428:	8007d23a 	srai	r3,r16,8
        regs->reg_0x009e_rdiv_rbb = (value >> 0) & 0xff;
    242c:	84003fcc 	andi	r16,r16,255
    2430:	14011015 	stw	r16,1088(r2)
        regs->reg_0x009d_rdiv_tbb = (value >> 0) & 0xff;
        return;
    }
    if (addr == 0x009E)
    {
        regs->reg_0x009e_rdiv_mxrfe = (value >> 8) & 0xff;
    2434:	10c10f15 	stw	r3,1084(r2)
    2438:	003c4b06 	br	1568 <__alt_data_end+0xfffc2d68>
        regs->reg_0x009e_rdiv_rbb = (value >> 0) & 0xff;
        return;
    }
    if (addr == 0x009F)
    243c:	00c027c4 	movi	r3,159
    2440:	88c0051e 	bne	r17,r3,2458 <set_addrs_to_default+0x1318>
    {
        regs->reg_0x009f_rdiv_lna12 = (value >> 8) & 0xff;
    2444:	8007d23a 	srai	r3,r16,8
        regs->reg_0x009f_rdiv_lna14 = (value >> 0) & 0xff;
    2448:	84003fcc 	andi	r16,r16,255
    244c:	14011215 	stw	r16,1096(r2)
        regs->reg_0x009e_rdiv_rbb = (value >> 0) & 0xff;
        return;
    }
    if (addr == 0x009F)
    {
        regs->reg_0x009f_rdiv_lna12 = (value >> 8) & 0xff;
    2450:	10c11115 	stw	r3,1092(r2)
    2454:	003c4406 	br	1568 <__alt_data_end+0xfffc2d68>
        regs->reg_0x009f_rdiv_lna14 = (value >> 0) & 0xff;
        return;
    }
    if (addr == 0x00A0)
    2458:	00c02804 	movi	r3,160
    245c:	88c0051e 	bne	r17,r3,2474 <set_addrs_to_default+0x1334>
    {
        regs->reg_0x00a0_rdiv_divsxr = (value >> 8) & 0xff;
    2460:	8007d23a 	srai	r3,r16,8
        regs->reg_0x00a0_rdiv_divsxt = (value >> 0) & 0xff;
    2464:	84003fcc 	andi	r16,r16,255
    2468:	14011415 	stw	r16,1104(r2)
        regs->reg_0x009f_rdiv_lna14 = (value >> 0) & 0xff;
        return;
    }
    if (addr == 0x00A0)
    {
        regs->reg_0x00a0_rdiv_divsxr = (value >> 8) & 0xff;
    246c:	10c11315 	stw	r3,1100(r2)
    2470:	003c3d06 	br	1568 <__alt_data_end+0xfffc2d68>
        regs->reg_0x00a0_rdiv_divsxt = (value >> 0) & 0xff;
        return;
    }
    if (addr == 0x00A1)
    2474:	00c02844 	movi	r3,161
    2478:	88c0051e 	bne	r17,r3,2490 <set_addrs_to_default+0x1350>
    {
        regs->reg_0x00a1_rdiv_digsxt = (value >> 8) & 0xff;
    247c:	8007d23a 	srai	r3,r16,8
        regs->reg_0x00a1_rdiv_divgn = (value >> 0) & 0xff;
    2480:	84003fcc 	andi	r16,r16,255
    2484:	14011615 	stw	r16,1112(r2)
        regs->reg_0x00a0_rdiv_divsxt = (value >> 0) & 0xff;
        return;
    }
    if (addr == 0x00A1)
    {
        regs->reg_0x00a1_rdiv_digsxt = (value >> 8) & 0xff;
    2488:	10c11515 	stw	r3,1108(r2)
    248c:	003c3606 	br	1568 <__alt_data_end+0xfffc2d68>
        regs->reg_0x00a1_rdiv_divgn = (value >> 0) & 0xff;
        return;
    }
    if (addr == 0x00A2)
    2490:	00c02884 	movi	r3,162
    2494:	88c0051e 	bne	r17,r3,24ac <set_addrs_to_default+0x136c>
    {
        regs->reg_0x00a2_rdiv_diggn = (value >> 8) & 0xff;
    2498:	8007d23a 	srai	r3,r16,8
        regs->reg_0x00a2_rdiv_digsxr = (value >> 0) & 0xff;
    249c:	84003fcc 	andi	r16,r16,255
    24a0:	14011815 	stw	r16,1120(r2)
        regs->reg_0x00a1_rdiv_divgn = (value >> 0) & 0xff;
        return;
    }
    if (addr == 0x00A2)
    {
        regs->reg_0x00a2_rdiv_diggn = (value >> 8) & 0xff;
    24a4:	10c11715 	stw	r3,1116(r2)
    24a8:	003c2f06 	br	1568 <__alt_data_end+0xfffc2d68>
        regs->reg_0x00a2_rdiv_digsxr = (value >> 0) & 0xff;
        return;
    }
    if (addr == 0x00A3)
    24ac:	00c028c4 	movi	r3,163
    24b0:	88c0051e 	bne	r17,r3,24c8 <set_addrs_to_default+0x1388>
    {
        regs->reg_0x00a3_rdiv_cpsxt = (value >> 8) & 0xff;
    24b4:	8007d23a 	srai	r3,r16,8
        regs->reg_0x00a3_rdiv_dig = (value >> 0) & 0xff;
    24b8:	84003fcc 	andi	r16,r16,255
    24bc:	14011a15 	stw	r16,1128(r2)
        regs->reg_0x00a2_rdiv_digsxr = (value >> 0) & 0xff;
        return;
    }
    if (addr == 0x00A3)
    {
        regs->reg_0x00a3_rdiv_cpsxt = (value >> 8) & 0xff;
    24c0:	10c11915 	stw	r3,1124(r2)
    24c4:	003c2806 	br	1568 <__alt_data_end+0xfffc2d68>
        regs->reg_0x00a3_rdiv_dig = (value >> 0) & 0xff;
        return;
    }
    if (addr == 0x00A4)
    24c8:	00c02904 	movi	r3,164
    24cc:	88c0051e 	bne	r17,r3,24e4 <set_addrs_to_default+0x13a4>
    {
        regs->reg_0x00a4_rdiv_cpgn = (value >> 8) & 0xff;
    24d0:	8007d23a 	srai	r3,r16,8
        regs->reg_0x00a4_rdiv_cpsxr = (value >> 0) & 0xff;
    24d4:	84003fcc 	andi	r16,r16,255
    24d8:	14011c15 	stw	r16,1136(r2)
        regs->reg_0x00a3_rdiv_dig = (value >> 0) & 0xff;
        return;
    }
    if (addr == 0x00A4)
    {
        regs->reg_0x00a4_rdiv_cpgn = (value >> 8) & 0xff;
    24dc:	10c11b15 	stw	r3,1132(r2)
    24e0:	003c2106 	br	1568 <__alt_data_end+0xfffc2d68>
        regs->reg_0x00a4_rdiv_cpsxr = (value >> 0) & 0xff;
        return;
    }
    if (addr == 0x00A5)
    24e4:	00c02944 	movi	r3,165
    24e8:	88c0051e 	bne	r17,r3,2500 <set_addrs_to_default+0x13c0>
    {
        regs->reg_0x00a5_rdiv_spibuf = (value >> 8) & 0xff;
    24ec:	8007d23a 	srai	r3,r16,8
        regs->reg_0x00a5_rdiv_afe = (value >> 0) & 0xff;
    24f0:	84003fcc 	andi	r16,r16,255
    24f4:	14011e15 	stw	r16,1144(r2)
        regs->reg_0x00a4_rdiv_cpsxr = (value >> 0) & 0xff;
        return;
    }
    if (addr == 0x00A5)
    {
        regs->reg_0x00a5_rdiv_spibuf = (value >> 8) & 0xff;
    24f8:	10c11d15 	stw	r3,1140(r2)
    24fc:	003c1a06 	br	1568 <__alt_data_end+0xfffc2d68>
        regs->reg_0x00a5_rdiv_afe = (value >> 0) & 0xff;
        return;
    }
    if (addr == 0x00A6)
    2500:	00c02984 	movi	r3,166
    2504:	88c0271e 	bne	r17,r3,25a4 <set_addrs_to_default+0x1464>
    {
        regs->reg_0x00a6_spdup_ldo_spibuf = (value >> 12) & 0x1;
    2508:	8007d33a 	srai	r3,r16,12
    250c:	18c0004c 	andi	r3,r3,1
    2510:	10c11f15 	stw	r3,1148(r2)
        regs->reg_0x00a6_spdup_ldo_digip2 = (value >> 11) & 0x1;
    2514:	8007d2fa 	srai	r3,r16,11
    2518:	18c0004c 	andi	r3,r3,1
    251c:	10c12015 	stw	r3,1152(r2)
        regs->reg_0x00a6_spdup_ldo_digip1 = (value >> 10) & 0x1;
    2520:	8007d2ba 	srai	r3,r16,10
    2524:	18c0004c 	andi	r3,r3,1
    2528:	10c12115 	stw	r3,1156(r2)
        regs->reg_0x00a6_byp_ldo_spibuf = (value >> 9) & 0x1;
    252c:	8007d27a 	srai	r3,r16,9
    2530:	18c0004c 	andi	r3,r3,1
    2534:	10c12215 	stw	r3,1160(r2)
        regs->reg_0x00a6_byp_ldo_digip2 = (value >> 8) & 0x1;
    2538:	8007d23a 	srai	r3,r16,8
    253c:	18c0004c 	andi	r3,r3,1
    2540:	10c12315 	stw	r3,1164(r2)
        regs->reg_0x00a6_byp_ldo_digip1 = (value >> 7) & 0x1;
    2544:	8007d1fa 	srai	r3,r16,7
    2548:	18c0004c 	andi	r3,r3,1
    254c:	10c12415 	stw	r3,1168(r2)
        regs->reg_0x00a6_en_loadimp_ldo_spibuf = (value >> 6) & 0x1;
    2550:	8007d1ba 	srai	r3,r16,6
    2554:	18c0004c 	andi	r3,r3,1
    2558:	10c12515 	stw	r3,1172(r2)
        regs->reg_0x00a6_en_loadimp_ldo_digip2 = (value >> 5) & 0x1;
    255c:	8007d17a 	srai	r3,r16,5
    2560:	18c0004c 	andi	r3,r3,1
    2564:	10c12615 	stw	r3,1176(r2)
        regs->reg_0x00a6_en_loadimp_ldo_digip1 = (value >> 4) & 0x1;
    2568:	8007d13a 	srai	r3,r16,4
    256c:	18c0004c 	andi	r3,r3,1
    2570:	10c12715 	stw	r3,1180(r2)
        regs->reg_0x00a6_pd_ldo_spibuf = (value >> 3) & 0x1;
    2574:	8007d0fa 	srai	r3,r16,3
    2578:	18c0004c 	andi	r3,r3,1
    257c:	10c12815 	stw	r3,1184(r2)
        regs->reg_0x00a6_pd_ldo_digip2 = (value >> 2) & 0x1;
    2580:	8007d0ba 	srai	r3,r16,2
    2584:	18c0004c 	andi	r3,r3,1
    2588:	10c12915 	stw	r3,1188(r2)
        regs->reg_0x00a6_pd_ldo_digip1 = (value >> 1) & 0x1;
    258c:	8007d07a 	srai	r3,r16,1
        regs->reg_0x00a6_en_g_ldop = (value >> 0) & 0x1;
    2590:	8400004c 	andi	r16,r16,1
    2594:	14012b15 	stw	r16,1196(r2)
        regs->reg_0x00a6_en_loadimp_ldo_spibuf = (value >> 6) & 0x1;
        regs->reg_0x00a6_en_loadimp_ldo_digip2 = (value >> 5) & 0x1;
        regs->reg_0x00a6_en_loadimp_ldo_digip1 = (value >> 4) & 0x1;
        regs->reg_0x00a6_pd_ldo_spibuf = (value >> 3) & 0x1;
        regs->reg_0x00a6_pd_ldo_digip2 = (value >> 2) & 0x1;
        regs->reg_0x00a6_pd_ldo_digip1 = (value >> 1) & 0x1;
    2598:	18c0004c 	andi	r3,r3,1
    259c:	10c12a15 	stw	r3,1192(r2)
    25a0:	003bf106 	br	1568 <__alt_data_end+0xfffc2d68>
        regs->reg_0x00a6_en_g_ldop = (value >> 0) & 0x1;
        return;
    }
    if (addr == 0x00A7)
    25a4:	00c029c4 	movi	r3,167
    25a8:	88c0051e 	bne	r17,r3,25c0 <set_addrs_to_default+0x1480>
    {
        regs->reg_0x00a7_rdiv_digip2 = (value >> 8) & 0xff;
    25ac:	8007d23a 	srai	r3,r16,8
        regs->reg_0x00a7_rdiv_digip1 = (value >> 0) & 0xff;
    25b0:	84003fcc 	andi	r16,r16,255
    25b4:	14012d15 	stw	r16,1204(r2)
        regs->reg_0x00a6_en_g_ldop = (value >> 0) & 0x1;
        return;
    }
    if (addr == 0x00A7)
    {
        regs->reg_0x00a7_rdiv_digip2 = (value >> 8) & 0xff;
    25b8:	10c12c15 	stw	r3,1200(r2)
    25bc:	003bea06 	br	1568 <__alt_data_end+0xfffc2d68>
        regs->reg_0x00a7_rdiv_digip1 = (value >> 0) & 0xff;
        return;
    }
    if (addr == 0x00a8)
    25c0:	00c02a04 	movi	r3,168
    25c4:	88c0021e 	bne	r17,r3,25d0 <set_addrs_to_default+0x1490>
    {
        regs->reg_0x00a8_value = (value >> 0) & 0xffff;
    25c8:	14012e15 	stw	r16,1208(r2)
    25cc:	003be606 	br	1568 <__alt_data_end+0xfffc2d68>
        return;
    }
    if (addr == 0x00aa)
    25d0:	00c02a84 	movi	r3,170
    25d4:	88c0021e 	bne	r17,r3,25e0 <set_addrs_to_default+0x14a0>
    {
        regs->reg_0x00aa_value = (value >> 0) & 0xffff;
    25d8:	14012f15 	stw	r16,1212(r2)
    25dc:	003be206 	br	1568 <__alt_data_end+0xfffc2d68>
        return;
    }
    if (addr == 0x00ab)
    25e0:	00c02ac4 	movi	r3,171
    25e4:	88c0021e 	bne	r17,r3,25f0 <set_addrs_to_default+0x14b0>
    {
        regs->reg_0x00ab_value = (value >> 0) & 0xffff;
    25e8:	14013015 	stw	r16,1216(r2)
    25ec:	003bde06 	br	1568 <__alt_data_end+0xfffc2d68>
        return;
    }
    if (addr == 0x00ad)
    25f0:	00c02b44 	movi	r3,173
    25f4:	88c0021e 	bne	r17,r3,2600 <set_addrs_to_default+0x14c0>
    {
        regs->reg_0x00ad_value = (value >> 0) & 0xffff;
    25f8:	14013115 	stw	r16,1220(r2)
    25fc:	003bda06 	br	1568 <__alt_data_end+0xfffc2d68>
        return;
    }
    if (addr == 0x00ae)
    2600:	00c02b84 	movi	r3,174
    2604:	88c0021e 	bne	r17,r3,2610 <set_addrs_to_default+0x14d0>
    {
        regs->reg_0x00ae_value = (value >> 0) & 0xffff;
    2608:	14013215 	stw	r16,1224(r2)
    260c:	003bd606 	br	1568 <__alt_data_end+0xfffc2d68>
        return;
    }
    if (addr == 0x0100)
    2610:	00c04004 	movi	r3,256
    2614:	88c0171e 	bne	r17,r3,2674 <set_addrs_to_default+0x1534>
    {
        regs->reg_0x0100_en_lowbwlomx_tmx_trf = (value >> 15) & 0x1;
    2618:	8007d3fa 	srai	r3,r16,15
    261c:	10c13315 	stw	r3,1228(r2)
        regs->reg_0x0100_en_nexttx_trf = (value >> 14) & 0x1;
    2620:	8007d3ba 	srai	r3,r16,14
    2624:	18c0004c 	andi	r3,r3,1
    2628:	10c13415 	stw	r3,1232(r2)
        regs->reg_0x0100_en_amphf_pdet_trf = (value >> 12) & 0x3;
    262c:	8007d33a 	srai	r3,r16,12
    2630:	18c000cc 	andi	r3,r3,3
    2634:	10c13515 	stw	r3,1236(r2)
        regs->reg_0x0100_loadr_pdet_trf = (value >> 10) & 0x3;
    2638:	8007d2ba 	srai	r3,r16,10
    263c:	18c000cc 	andi	r3,r3,3
    2640:	10c13615 	stw	r3,1240(r2)
        regs->reg_0x0100_pd_pdet_trf = (value >> 3) & 0x1;
    2644:	8007d0fa 	srai	r3,r16,3
    2648:	18c0004c 	andi	r3,r3,1
    264c:	10c13715 	stw	r3,1244(r2)
        regs->reg_0x0100_pd_tlobuf_trf = (value >> 2) & 0x1;
    2650:	8007d0ba 	srai	r3,r16,2
    2654:	18c0004c 	andi	r3,r3,1
    2658:	10c13815 	stw	r3,1248(r2)
        regs->reg_0x0100_pd_txpad_trf = (value >> 1) & 0x1;
    265c:	8007d07a 	srai	r3,r16,1
        regs->reg_0x0100_en_g_trf = (value >> 0) & 0x1;
    2660:	8400004c 	andi	r16,r16,1
    2664:	14013a15 	stw	r16,1256(r2)
        regs->reg_0x0100_en_nexttx_trf = (value >> 14) & 0x1;
        regs->reg_0x0100_en_amphf_pdet_trf = (value >> 12) & 0x3;
        regs->reg_0x0100_loadr_pdet_trf = (value >> 10) & 0x3;
        regs->reg_0x0100_pd_pdet_trf = (value >> 3) & 0x1;
        regs->reg_0x0100_pd_tlobuf_trf = (value >> 2) & 0x1;
        regs->reg_0x0100_pd_txpad_trf = (value >> 1) & 0x1;
    2668:	18c0004c 	andi	r3,r3,1
    266c:	10c13915 	stw	r3,1252(r2)
    2670:	003bbd06 	br	1568 <__alt_data_end+0xfffc2d68>
        regs->reg_0x0100_en_g_trf = (value >> 0) & 0x1;
        return;
    }
    if (addr == 0x0101)
    2674:	00c04044 	movi	r3,257
    2678:	88c00e1e 	bne	r17,r3,26b4 <set_addrs_to_default+0x1574>
    {
        regs->reg_0x0101_f_txpad_trf = (value >> 13) & 0x7;
    267c:	8007d37a 	srai	r3,r16,13
    2680:	10c13b15 	stw	r3,1260(r2)
        regs->reg_0x0101_l_loopb_txpad_trf = (value >> 11) & 0x3;
    2684:	8007d2fa 	srai	r3,r16,11
    2688:	18c000cc 	andi	r3,r3,3
    268c:	10c13c15 	stw	r3,1264(r2)
        regs->reg_0x0101_loss_lin_txpad_trf = (value >> 6) & 0x1f;
    2690:	8007d1ba 	srai	r3,r16,6
    2694:	18c007cc 	andi	r3,r3,31
    2698:	10c13d15 	stw	r3,1268(r2)
        regs->reg_0x0101_loss_main_txpad_trf = (value >> 1) & 0x1f;
    269c:	8007d07a 	srai	r3,r16,1
        regs->reg_0x0101_en_loopb_txpad_trf = (value >> 0) & 0x1;
    26a0:	8400004c 	andi	r16,r16,1
    26a4:	14013f15 	stw	r16,1276(r2)
    if (addr == 0x0101)
    {
        regs->reg_0x0101_f_txpad_trf = (value >> 13) & 0x7;
        regs->reg_0x0101_l_loopb_txpad_trf = (value >> 11) & 0x3;
        regs->reg_0x0101_loss_lin_txpad_trf = (value >> 6) & 0x1f;
        regs->reg_0x0101_loss_main_txpad_trf = (value >> 1) & 0x1f;
    26a8:	18c007cc 	andi	r3,r3,31
    26ac:	10c13e15 	stw	r3,1272(r2)
    26b0:	003bad06 	br	1568 <__alt_data_end+0xfffc2d68>
        regs->reg_0x0101_en_loopb_txpad_trf = (value >> 0) & 0x1;
        return;
    }
    if (addr == 0x0102)
    26b4:	00c04084 	movi	r3,258
    26b8:	88c00b1e 	bne	r17,r3,26e8 <set_addrs_to_default+0x15a8>
    {
        regs->reg_0x0102_gcas_gndref_txpad_trf = (value >> 15) & 0x1;
    26bc:	8007d3fa 	srai	r3,r16,15
    26c0:	10c14015 	stw	r3,1280(r2)
        regs->reg_0x0102_ict_lin_txpad_trf = (value >> 10) & 0x1f;
    26c4:	8007d2ba 	srai	r3,r16,10
    26c8:	18c007cc 	andi	r3,r3,31
    26cc:	10c14115 	stw	r3,1284(r2)
        regs->reg_0x0102_ict_main_txpad_trf = (value >> 5) & 0x1f;
    26d0:	8007d17a 	srai	r3,r16,5
        regs->reg_0x0102_vgcas_txpad_trf = (value >> 0) & 0x1f;
    26d4:	840007cc 	andi	r16,r16,31
    26d8:	14014315 	stw	r16,1292(r2)
    }
    if (addr == 0x0102)
    {
        regs->reg_0x0102_gcas_gndref_txpad_trf = (value >> 15) & 0x1;
        regs->reg_0x0102_ict_lin_txpad_trf = (value >> 10) & 0x1f;
        regs->reg_0x0102_ict_main_txpad_trf = (value >> 5) & 0x1f;
    26dc:	18c007cc 	andi	r3,r3,31
    26e0:	10c14215 	stw	r3,1288(r2)
    26e4:	003ba006 	br	1568 <__alt_data_end+0xfffc2d68>
        regs->reg_0x0102_vgcas_txpad_trf = (value >> 0) & 0x1f;
        return;
    }
    if (addr == 0x0103)
    26e8:	00c040c4 	movi	r3,259
    26ec:	88c00c1e 	bne	r17,r3,2720 <set_addrs_to_default+0x15e0>
    {
        regs->reg_0x0103_sel_band1_trf = (value >> 11) & 0x1;
    26f0:	8007d2fa 	srai	r3,r16,11
    26f4:	18c0004c 	andi	r3,r3,1
    26f8:	10c14415 	stw	r3,1296(r2)
        regs->reg_0x0103_sel_band2_trf = (value >> 10) & 0x1;
    26fc:	8007d2ba 	srai	r3,r16,10
    2700:	18c0004c 	andi	r3,r3,1
    2704:	10c14515 	stw	r3,1300(r2)
        regs->reg_0x0103_lobiasn_txm_trf = (value >> 5) & 0x1f;
    2708:	8007d17a 	srai	r3,r16,5
        regs->reg_0x0103_lobiasp_txx_trf = (value >> 0) & 0x1f;
    270c:	840007cc 	andi	r16,r16,31
    2710:	14014715 	stw	r16,1308(r2)
    }
    if (addr == 0x0103)
    {
        regs->reg_0x0103_sel_band1_trf = (value >> 11) & 0x1;
        regs->reg_0x0103_sel_band2_trf = (value >> 10) & 0x1;
        regs->reg_0x0103_lobiasn_txm_trf = (value >> 5) & 0x1f;
    2714:	18c007cc 	andi	r3,r3,31
    2718:	10c14615 	stw	r3,1304(r2)
    271c:	003b9206 	br	1568 <__alt_data_end+0xfffc2d68>
        regs->reg_0x0103_lobiasp_txx_trf = (value >> 0) & 0x1f;
        return;
    }
    if (addr == 0x0104)
    2720:	00c04104 	movi	r3,260
    2724:	88c0061e 	bne	r17,r3,2740 <set_addrs_to_default+0x1600>
    {
        regs->reg_0x0104_cdc_i_trf = (value >> 4) & 0xf;
    2728:	8007d13a 	srai	r3,r16,4
        regs->reg_0x0104_cdc_q_trf = (value >> 0) & 0xf;
    272c:	840003cc 	andi	r16,r16,15
    2730:	14014915 	stw	r16,1316(r2)
        regs->reg_0x0103_lobiasp_txx_trf = (value >> 0) & 0x1f;
        return;
    }
    if (addr == 0x0104)
    {
        regs->reg_0x0104_cdc_i_trf = (value >> 4) & 0xf;
    2734:	18c003cc 	andi	r3,r3,15
    2738:	10c14815 	stw	r3,1312(r2)
    273c:	003b8a06 	br	1568 <__alt_data_end+0xfffc2d68>
        regs->reg_0x0104_cdc_q_trf = (value >> 0) & 0xf;
        return;
    }
    if (addr == 0x0105)
    2740:	00c04144 	movi	r3,261
    2744:	88c0141e 	bne	r17,r3,2798 <set_addrs_to_default+0x1658>
    {
        regs->reg_0x0105_statpulse_tbb = (value >> 15) & 0x1;
    2748:	8007d3fa 	srai	r3,r16,15
    274c:	10c14a15 	stw	r3,1320(r2)
        regs->reg_0x0105_loopb_tbb = (value >> 12) & 0x7;
    2750:	8007d33a 	srai	r3,r16,12
    2754:	18c001cc 	andi	r3,r3,7
    2758:	10c14b15 	stw	r3,1324(r2)
        regs->reg_0x0105_pd_lpfh_tbb = (value >> 4) & 0x1;
    275c:	8007d13a 	srai	r3,r16,4
    2760:	18c0004c 	andi	r3,r3,1
    2764:	10c14c15 	stw	r3,1328(r2)
        regs->reg_0x0105_pd_lpfiamp_tbb = (value >> 3) & 0x1;
    2768:	8007d0fa 	srai	r3,r16,3
    276c:	18c0004c 	andi	r3,r3,1
    2770:	10c14d15 	stw	r3,1332(r2)
        regs->reg_0x0105_pd_lpflad_tbb = (value >> 2) & 0x1;
    2774:	8007d0ba 	srai	r3,r16,2
    2778:	18c0004c 	andi	r3,r3,1
    277c:	10c14e15 	stw	r3,1336(r2)
        regs->reg_0x0105_pd_lpfs5_tbb = (value >> 1) & 0x1;
    2780:	8007d07a 	srai	r3,r16,1
        regs->reg_0x0105_en_g_tbb = (value >> 0) & 0x1;
    2784:	8400004c 	andi	r16,r16,1
    2788:	14015015 	stw	r16,1344(r2)
        regs->reg_0x0105_statpulse_tbb = (value >> 15) & 0x1;
        regs->reg_0x0105_loopb_tbb = (value >> 12) & 0x7;
        regs->reg_0x0105_pd_lpfh_tbb = (value >> 4) & 0x1;
        regs->reg_0x0105_pd_lpfiamp_tbb = (value >> 3) & 0x1;
        regs->reg_0x0105_pd_lpflad_tbb = (value >> 2) & 0x1;
        regs->reg_0x0105_pd_lpfs5_tbb = (value >> 1) & 0x1;
    278c:	18c0004c 	andi	r3,r3,1
    2790:	10c14f15 	stw	r3,1340(r2)
    2794:	003b7406 	br	1568 <__alt_data_end+0xfffc2d68>
        regs->reg_0x0105_en_g_tbb = (value >> 0) & 0x1;
        return;
    }
    if (addr == 0x0106)
    2798:	00c04184 	movi	r3,262
    279c:	88c0091e 	bne	r17,r3,27c4 <set_addrs_to_default+0x1684>
    {
        regs->reg_0x0106_ict_lpfs5_f_tbb = (value >> 10) & 0x1f;
    27a0:	8007d2ba 	srai	r3,r16,10
    27a4:	18c007cc 	andi	r3,r3,31
    27a8:	10c15115 	stw	r3,1348(r2)
        regs->reg_0x0106_ict_lpfs5_pt_tbb = (value >> 5) & 0x1f;
    27ac:	8007d17a 	srai	r3,r16,5
        regs->reg_0x0106_ict_lpf_h_pt_tbb = (value >> 0) & 0x1f;
    27b0:	840007cc 	andi	r16,r16,31
    27b4:	14015315 	stw	r16,1356(r2)
        return;
    }
    if (addr == 0x0106)
    {
        regs->reg_0x0106_ict_lpfs5_f_tbb = (value >> 10) & 0x1f;
        regs->reg_0x0106_ict_lpfs5_pt_tbb = (value >> 5) & 0x1f;
    27b8:	18c007cc 	andi	r3,r3,31
    27bc:	10c15215 	stw	r3,1352(r2)
    27c0:	003b6906 	br	1568 <__alt_data_end+0xfffc2d68>
        regs->reg_0x0106_ict_lpf_h_pt_tbb = (value >> 0) & 0x1f;
        return;
    }
    if (addr == 0x0107)
    27c4:	00c041c4 	movi	r3,263
    27c8:	88c0091e 	bne	r17,r3,27f0 <set_addrs_to_default+0x16b0>
    {
        regs->reg_0x0107_ict_lpfh_f_tbb = (value >> 10) & 0x1f;
    27cc:	8007d2ba 	srai	r3,r16,10
    27d0:	18c007cc 	andi	r3,r3,31
    27d4:	10c15415 	stw	r3,1360(r2)
        regs->reg_0x0107_ict_lpflad_f_tbb = (value >> 5) & 0x1f;
    27d8:	8007d17a 	srai	r3,r16,5
        regs->reg_0x0107_ict_lpflad_pt_tbb = (value >> 0) & 0x1f;
    27dc:	840007cc 	andi	r16,r16,31
    27e0:	14015615 	stw	r16,1368(r2)
        return;
    }
    if (addr == 0x0107)
    {
        regs->reg_0x0107_ict_lpfh_f_tbb = (value >> 10) & 0x1f;
        regs->reg_0x0107_ict_lpflad_f_tbb = (value >> 5) & 0x1f;
    27e4:	18c007cc 	andi	r3,r3,31
    27e8:	10c15515 	stw	r3,1364(r2)
    27ec:	003b5e06 	br	1568 <__alt_data_end+0xfffc2d68>
        regs->reg_0x0107_ict_lpflad_pt_tbb = (value >> 0) & 0x1f;
        return;
    }
    if (addr == 0x0108)
    27f0:	00c04204 	movi	r3,264
    27f4:	88c0081e 	bne	r17,r3,2818 <set_addrs_to_default+0x16d8>
    {
        regs->reg_0x0108_cg_iamp_tbb = (value >> 10) & 0x3f;
    27f8:	8007d2ba 	srai	r3,r16,10
    27fc:	10c15715 	stw	r3,1372(r2)
        regs->reg_0x0108_ict_iamp_frp_tbb = (value >> 5) & 0x1f;
    2800:	8007d17a 	srai	r3,r16,5
        regs->reg_0x0108_ict_iamp_gg_frp_tbb = (value >> 0) & 0x1f;
    2804:	840007cc 	andi	r16,r16,31
    2808:	14015915 	stw	r16,1380(r2)
        return;
    }
    if (addr == 0x0108)
    {
        regs->reg_0x0108_cg_iamp_tbb = (value >> 10) & 0x3f;
        regs->reg_0x0108_ict_iamp_frp_tbb = (value >> 5) & 0x1f;
    280c:	18c007cc 	andi	r3,r3,31
    2810:	10c15815 	stw	r3,1376(r2)
    2814:	003b5406 	br	1568 <__alt_data_end+0xfffc2d68>
        regs->reg_0x0108_ict_iamp_gg_frp_tbb = (value >> 0) & 0x1f;
        return;
    }
    if (addr == 0x0109)
    2818:	00c04244 	movi	r3,265
    281c:	88c0051e 	bne	r17,r3,2834 <set_addrs_to_default+0x16f4>
    {
        regs->reg_0x0109_rcal_lpfh_tbb = (value >> 8) & 0xff;
    2820:	8007d23a 	srai	r3,r16,8
        regs->reg_0x0109_rcal_lpflad_tbb = (value >> 0) & 0xff;
    2824:	84003fcc 	andi	r16,r16,255
    2828:	14015b15 	stw	r16,1388(r2)
        regs->reg_0x0108_ict_iamp_gg_frp_tbb = (value >> 0) & 0x1f;
        return;
    }
    if (addr == 0x0109)
    {
        regs->reg_0x0109_rcal_lpfh_tbb = (value >> 8) & 0xff;
    282c:	10c15a15 	stw	r3,1384(r2)
    2830:	003b4d06 	br	1568 <__alt_data_end+0xfffc2d68>
        regs->reg_0x0109_rcal_lpflad_tbb = (value >> 0) & 0xff;
        return;
    }
    if (addr == 0x010A)
    2834:	00c04284 	movi	r3,266
    2838:	88c00b1e 	bne	r17,r3,2868 <set_addrs_to_default+0x1728>
    {
        regs->reg_0x010a_tstin_tbb = (value >> 14) & 0x3;
    283c:	8007d3ba 	srai	r3,r16,14
    2840:	10c15c15 	stw	r3,1392(r2)
        regs->reg_0x010a_bypladder_tbb = (value >> 13) & 0x1;
    2844:	8007d37a 	srai	r3,r16,13
    2848:	18c0004c 	andi	r3,r3,1
    284c:	10c15d15 	stw	r3,1396(r2)
        regs->reg_0x010a_ccal_lpflad_tbb = (value >> 8) & 0x1f;
    2850:	8007d23a 	srai	r3,r16,8
        regs->reg_0x010a_rcal_lpfs5_tbb = (value >> 0) & 0xff;
    2854:	84003fcc 	andi	r16,r16,255
    2858:	14015f15 	stw	r16,1404(r2)
    }
    if (addr == 0x010A)
    {
        regs->reg_0x010a_tstin_tbb = (value >> 14) & 0x3;
        regs->reg_0x010a_bypladder_tbb = (value >> 13) & 0x1;
        regs->reg_0x010a_ccal_lpflad_tbb = (value >> 8) & 0x1f;
    285c:	18c007cc 	andi	r3,r3,31
    2860:	10c15e15 	stw	r3,1400(r2)
    2864:	003b4006 	br	1568 <__alt_data_end+0xfffc2d68>
        regs->reg_0x010a_rcal_lpfs5_tbb = (value >> 0) & 0xff;
        return;
    }
    if (addr == 0x010b)
    2868:	00c042c4 	movi	r3,267
    286c:	88c0021e 	bne	r17,r3,2878 <set_addrs_to_default+0x1738>
    {
        regs->reg_0x010b_value = (value >> 0) & 0xffff;
    2870:	14016015 	stw	r16,1408(r2)
    2874:	003b3c06 	br	1568 <__alt_data_end+0xfffc2d68>
        return;
    }
    if (addr == 0x010C)
    2878:	00c04304 	movi	r3,268
    287c:	88c01d1e 	bne	r17,r3,28f4 <set_addrs_to_default+0x17b4>
    {
        regs->reg_0x010c_cdc_i_rfe = (value >> 12) & 0xf;
    2880:	8007d33a 	srai	r3,r16,12
    2884:	10c16115 	stw	r3,1412(r2)
        regs->reg_0x010c_cdc_q_rfe = (value >> 8) & 0xf;
    2888:	8007d23a 	srai	r3,r16,8
    288c:	18c003cc 	andi	r3,r3,15
    2890:	10c16215 	stw	r3,1416(r2)
        regs->reg_0x010c_pd_lna_rfe = (value >> 7) & 0x1;
    2894:	8007d1fa 	srai	r3,r16,7
    2898:	18c0004c 	andi	r3,r3,1
    289c:	10c16315 	stw	r3,1420(r2)
        regs->reg_0x010c_pd_rloopb_1_rfe = (value >> 6) & 0x1;
    28a0:	8007d1ba 	srai	r3,r16,6
    28a4:	18c0004c 	andi	r3,r3,1
    28a8:	10c16415 	stw	r3,1424(r2)
        regs->reg_0x010c_pd_rloopb_2_rfe = (value >> 5) & 0x1;
    28ac:	8007d17a 	srai	r3,r16,5
    28b0:	18c0004c 	andi	r3,r3,1
    28b4:	10c16515 	stw	r3,1428(r2)
        regs->reg_0x010c_pd_mxlobuf_rfe = (value >> 4) & 0x1;
    28b8:	8007d13a 	srai	r3,r16,4
    28bc:	18c0004c 	andi	r3,r3,1
    28c0:	10c16615 	stw	r3,1432(r2)
        regs->reg_0x010c_pd_qgen_rfe = (value >> 3) & 0x1;
    28c4:	8007d0fa 	srai	r3,r16,3
    28c8:	18c0004c 	andi	r3,r3,1
    28cc:	10c16715 	stw	r3,1436(r2)
        regs->reg_0x010c_pd_rssi_rfe = (value >> 2) & 0x1;
    28d0:	8007d0ba 	srai	r3,r16,2
    28d4:	18c0004c 	andi	r3,r3,1
    28d8:	10c16815 	stw	r3,1440(r2)
        regs->reg_0x010c_pd_tia_rfe = (value >> 1) & 0x1;
    28dc:	8007d07a 	srai	r3,r16,1
        regs->reg_0x010c_en_g_rfe = (value >> 0) & 0x1;
    28e0:	8400004c 	andi	r16,r16,1
    28e4:	14016a15 	stw	r16,1448(r2)
        regs->reg_0x010c_pd_rloopb_1_rfe = (value >> 6) & 0x1;
        regs->reg_0x010c_pd_rloopb_2_rfe = (value >> 5) & 0x1;
        regs->reg_0x010c_pd_mxlobuf_rfe = (value >> 4) & 0x1;
        regs->reg_0x010c_pd_qgen_rfe = (value >> 3) & 0x1;
        regs->reg_0x010c_pd_rssi_rfe = (value >> 2) & 0x1;
        regs->reg_0x010c_pd_tia_rfe = (value >> 1) & 0x1;
    28e8:	18c0004c 	andi	r3,r3,1
    28ec:	10c16915 	stw	r3,1444(r2)
    28f0:	003b1d06 	br	1568 <__alt_data_end+0xfffc2d68>
        regs->reg_0x010c_en_g_rfe = (value >> 0) & 0x1;
        return;
    }
    if (addr == 0x010D)
    28f4:	00c04344 	movi	r3,269
    28f8:	88c0151e 	bne	r17,r3,2950 <set_addrs_to_default+0x1810>
    {
        regs->reg_0x010d_sel_path_rfe = (value >> 7) & 0x3;
    28fc:	8007d1fa 	srai	r3,r16,7
    2900:	18c000cc 	andi	r3,r3,3
    2904:	10c16b15 	stw	r3,1452(r2)
        regs->reg_0x010d_en_dcoff_rxfe_rfe = (value >> 6) & 0x1;
    2908:	8007d1ba 	srai	r3,r16,6
    290c:	18c0004c 	andi	r3,r3,1
    2910:	10c16c15 	stw	r3,1456(r2)
        regs->reg_0x010d_en_inshsw_lb1_rfe = (value >> 4) & 0x1;
    2914:	8007d13a 	srai	r3,r16,4
    2918:	18c0004c 	andi	r3,r3,1
    291c:	10c16d15 	stw	r3,1460(r2)
        regs->reg_0x010d_en_inshsw_lb2_rfe = (value >> 3) & 0x1;
    2920:	8007d0fa 	srai	r3,r16,3
    2924:	18c0004c 	andi	r3,r3,1
    2928:	10c16e15 	stw	r3,1464(r2)
        regs->reg_0x010d_en_inshsw_l_rfe = (value >> 2) & 0x1;
    292c:	8007d0ba 	srai	r3,r16,2
    2930:	18c0004c 	andi	r3,r3,1
    2934:	10c16f15 	stw	r3,1468(r2)
        regs->reg_0x010d_en_inshsw_w_rfe = (value >> 1) & 0x1;
    2938:	8007d07a 	srai	r3,r16,1
        regs->reg_0x010d_en_nextrx_rfe = (value >> 0) & 0x1;
    293c:	8400004c 	andi	r16,r16,1
    2940:	14017115 	stw	r16,1476(r2)
        regs->reg_0x010d_sel_path_rfe = (value >> 7) & 0x3;
        regs->reg_0x010d_en_dcoff_rxfe_rfe = (value >> 6) & 0x1;
        regs->reg_0x010d_en_inshsw_lb1_rfe = (value >> 4) & 0x1;
        regs->reg_0x010d_en_inshsw_lb2_rfe = (value >> 3) & 0x1;
        regs->reg_0x010d_en_inshsw_l_rfe = (value >> 2) & 0x1;
        regs->reg_0x010d_en_inshsw_w_rfe = (value >> 1) & 0x1;
    2944:	18c0004c 	andi	r3,r3,1
    2948:	10c17015 	stw	r3,1472(r2)
    294c:	003b0606 	br	1568 <__alt_data_end+0xfffc2d68>
        regs->reg_0x010d_en_nextrx_rfe = (value >> 0) & 0x1;
        return;
    }
    if (addr == 0x010E)
    2950:	00c04384 	movi	r3,270
    2954:	88c0061e 	bne	r17,r3,2970 <set_addrs_to_default+0x1830>
    {
        regs->reg_0x010e_dcoffi_rfe = (value >> 7) & 0x7f;
    2958:	8007d1fa 	srai	r3,r16,7
        regs->reg_0x010e_dcoffq_rfe = (value >> 0) & 0x7f;
    295c:	84001fcc 	andi	r16,r16,127
    2960:	14017315 	stw	r16,1484(r2)
        regs->reg_0x010d_en_nextrx_rfe = (value >> 0) & 0x1;
        return;
    }
    if (addr == 0x010E)
    {
        regs->reg_0x010e_dcoffi_rfe = (value >> 7) & 0x7f;
    2964:	18c01fcc 	andi	r3,r3,127
    2968:	10c17215 	stw	r3,1480(r2)
    296c:	003afe06 	br	1568 <__alt_data_end+0xfffc2d68>
        regs->reg_0x010e_dcoffq_rfe = (value >> 0) & 0x7f;
        return;
    }
    if (addr == 0x010F)
    2970:	00c043c4 	movi	r3,271
    2974:	88c0091e 	bne	r17,r3,299c <set_addrs_to_default+0x185c>
    {
        regs->reg_0x010f_ict_loopb_rfe = (value >> 10) & 0x1f;
    2978:	8007d2ba 	srai	r3,r16,10
    297c:	18c007cc 	andi	r3,r3,31
    2980:	10c17415 	stw	r3,1488(r2)
        regs->reg_0x010f_ict_tiamain_rfe = (value >> 5) & 0x1f;
    2984:	8007d17a 	srai	r3,r16,5
        regs->reg_0x010f_ict_tiaout_rfe = (value >> 0) & 0x1f;
    2988:	840007cc 	andi	r16,r16,31
    298c:	14017615 	stw	r16,1496(r2)
        return;
    }
    if (addr == 0x010F)
    {
        regs->reg_0x010f_ict_loopb_rfe = (value >> 10) & 0x1f;
        regs->reg_0x010f_ict_tiamain_rfe = (value >> 5) & 0x1f;
    2990:	18c007cc 	andi	r3,r3,31
    2994:	10c17515 	stw	r3,1492(r2)
    2998:	003af306 	br	1568 <__alt_data_end+0xfffc2d68>
        regs->reg_0x010f_ict_tiaout_rfe = (value >> 0) & 0x1f;
        return;
    }
    if (addr == 0x0110)
    299c:	00c04404 	movi	r3,272
    29a0:	88c0091e 	bne	r17,r3,29c8 <set_addrs_to_default+0x1888>
    {
        regs->reg_0x0110_ict_lnacmo_rfe = (value >> 10) & 0x1f;
    29a4:	8007d2ba 	srai	r3,r16,10
    29a8:	18c007cc 	andi	r3,r3,31
    29ac:	10c17715 	stw	r3,1500(r2)
        regs->reg_0x0110_ict_lna_rfe = (value >> 5) & 0x1f;
    29b0:	8007d17a 	srai	r3,r16,5
        regs->reg_0x0110_ict_lodc_rfe = (value >> 0) & 0x1f;
    29b4:	840007cc 	andi	r16,r16,31
    29b8:	14017915 	stw	r16,1508(r2)
        return;
    }
    if (addr == 0x0110)
    {
        regs->reg_0x0110_ict_lnacmo_rfe = (value >> 10) & 0x1f;
        regs->reg_0x0110_ict_lna_rfe = (value >> 5) & 0x1f;
    29bc:	18c007cc 	andi	r3,r3,31
    29c0:	10c17815 	stw	r3,1504(r2)
    29c4:	003ae806 	br	1568 <__alt_data_end+0xfffc2d68>
        regs->reg_0x0110_ict_lodc_rfe = (value >> 0) & 0x1f;
        return;
    }
    if (addr == 0x0111)
    29c8:	00c04444 	movi	r3,273
    29cc:	88c0061e 	bne	r17,r3,29e8 <set_addrs_to_default+0x18a8>
    {
        regs->reg_0x0111_cap_rxmxo_rfe = (value >> 5) & 0x1f;
    29d0:	8007d17a 	srai	r3,r16,5
        regs->reg_0x0111_cgsin_lna_rfe = (value >> 0) & 0x1f;
    29d4:	840007cc 	andi	r16,r16,31
    29d8:	14017b15 	stw	r16,1516(r2)
        regs->reg_0x0110_ict_lodc_rfe = (value >> 0) & 0x1f;
        return;
    }
    if (addr == 0x0111)
    {
        regs->reg_0x0111_cap_rxmxo_rfe = (value >> 5) & 0x1f;
    29dc:	18c007cc 	andi	r3,r3,31
    29e0:	10c17a15 	stw	r3,1512(r2)
    29e4:	003ae006 	br	1568 <__alt_data_end+0xfffc2d68>
        regs->reg_0x0111_cgsin_lna_rfe = (value >> 0) & 0x1f;
        return;
    }
    if (addr == 0x0112)
    29e8:	00c04484 	movi	r3,274
    29ec:	88c0051e 	bne	r17,r3,2a04 <set_addrs_to_default+0x18c4>
    {
        regs->reg_0x0112_ccomp_tia_rfe = (value >> 12) & 0xf;
    29f0:	8007d33a 	srai	r3,r16,12
        regs->reg_0x0112_cfb_tia_rfe = (value >> 0) & 0xfff;
    29f4:	8403ffcc 	andi	r16,r16,4095
    29f8:	14017d15 	stw	r16,1524(r2)
        regs->reg_0x0111_cgsin_lna_rfe = (value >> 0) & 0x1f;
        return;
    }
    if (addr == 0x0112)
    {
        regs->reg_0x0112_ccomp_tia_rfe = (value >> 12) & 0xf;
    29fc:	10c17c15 	stw	r3,1520(r2)
    2a00:	003ad906 	br	1568 <__alt_data_end+0xfffc2d68>
        regs->reg_0x0112_cfb_tia_rfe = (value >> 0) & 0xfff;
        return;
    }
    if (addr == 0x0113)
    2a04:	00c044c4 	movi	r3,275
    2a08:	88c0091e 	bne	r17,r3,2a30 <set_addrs_to_default+0x18f0>
    {
        regs->reg_0x0113_g_lna_rfe = (value >> 6) & 0xf;
    2a0c:	8007d1ba 	srai	r3,r16,6
    2a10:	18c003cc 	andi	r3,r3,15
    2a14:	10c17e15 	stw	r3,1528(r2)
        regs->reg_0x0113_g_rxloopb_rfe = (value >> 2) & 0xf;
    2a18:	8007d0ba 	srai	r3,r16,2
        regs->reg_0x0113_g_tia_rfe = (value >> 0) & 0x3;
    2a1c:	840000cc 	andi	r16,r16,3
    2a20:	14018015 	stw	r16,1536(r2)
        return;
    }
    if (addr == 0x0113)
    {
        regs->reg_0x0113_g_lna_rfe = (value >> 6) & 0xf;
        regs->reg_0x0113_g_rxloopb_rfe = (value >> 2) & 0xf;
    2a24:	18c003cc 	andi	r3,r3,15
    2a28:	10c17f15 	stw	r3,1532(r2)
    2a2c:	003ace06 	br	1568 <__alt_data_end+0xfffc2d68>
        regs->reg_0x0113_g_tia_rfe = (value >> 0) & 0x3;
        return;
    }
    if (addr == 0x0114)
    2a30:	00c04504 	movi	r3,276
    2a34:	88c0061e 	bne	r17,r3,2a50 <set_addrs_to_default+0x1910>
    {
        regs->reg_0x0114_rcomp_tia_rfe = (value >> 5) & 0xf;
    2a38:	8007d17a 	srai	r3,r16,5
        regs->reg_0x0114_rfb_tia_rfe = (value >> 0) & 0x1f;
    2a3c:	840007cc 	andi	r16,r16,31
    2a40:	14018215 	stw	r16,1544(r2)
        regs->reg_0x0113_g_tia_rfe = (value >> 0) & 0x3;
        return;
    }
    if (addr == 0x0114)
    {
        regs->reg_0x0114_rcomp_tia_rfe = (value >> 5) & 0xf;
    2a44:	18c003cc 	andi	r3,r3,15
    2a48:	10c18115 	stw	r3,1540(r2)
    2a4c:	003ac606 	br	1568 <__alt_data_end+0xfffc2d68>
        regs->reg_0x0114_rfb_tia_rfe = (value >> 0) & 0x1f;
        return;
    }
    if (addr == 0x0115)
    2a50:	00c04544 	movi	r3,277
    2a54:	88c0111e 	bne	r17,r3,2a9c <set_addrs_to_default+0x195c>
    {
        regs->reg_0x0115_en_lb_lpfh_rbb = (value >> 15) & 0x1;
    2a58:	8007d3fa 	srai	r3,r16,15
    2a5c:	10c18315 	stw	r3,1548(r2)
        regs->reg_0x0115_en_lb_lpfl_rbb = (value >> 14) & 0x1;
    2a60:	8007d3ba 	srai	r3,r16,14
    2a64:	18c0004c 	andi	r3,r3,1
    2a68:	10c18415 	stw	r3,1552(r2)
        regs->reg_0x0115_pd_lpfh_rbb = (value >> 3) & 0x1;
    2a6c:	8007d0fa 	srai	r3,r16,3
    2a70:	18c0004c 	andi	r3,r3,1
    2a74:	10c18515 	stw	r3,1556(r2)
        regs->reg_0x0115_pd_lpfl_rbb = (value >> 2) & 0x1;
    2a78:	8007d0ba 	srai	r3,r16,2
    2a7c:	18c0004c 	andi	r3,r3,1
    2a80:	10c18615 	stw	r3,1560(r2)
        regs->reg_0x0115_pd_pga_rbb = (value >> 1) & 0x1;
    2a84:	8007d07a 	srai	r3,r16,1
        regs->reg_0x0115_en_g_rbb = (value >> 0) & 0x1;
    2a88:	8400004c 	andi	r16,r16,1
    2a8c:	14018815 	stw	r16,1568(r2)
    {
        regs->reg_0x0115_en_lb_lpfh_rbb = (value >> 15) & 0x1;
        regs->reg_0x0115_en_lb_lpfl_rbb = (value >> 14) & 0x1;
        regs->reg_0x0115_pd_lpfh_rbb = (value >> 3) & 0x1;
        regs->reg_0x0115_pd_lpfl_rbb = (value >> 2) & 0x1;
        regs->reg_0x0115_pd_pga_rbb = (value >> 1) & 0x1;
    2a90:	18c0004c 	andi	r3,r3,1
    2a94:	10c18715 	stw	r3,1564(r2)
    2a98:	003ab306 	br	1568 <__alt_data_end+0xfffc2d68>
        regs->reg_0x0115_en_g_rbb = (value >> 0) & 0x1;
        return;
    }
    if (addr == 0x0116)
    2a9c:	00c04584 	movi	r3,278
    2aa0:	88c0081e 	bne	r17,r3,2ac4 <set_addrs_to_default+0x1984>
    {
        regs->reg_0x0116_r_ctl_lpf_rbb = (value >> 11) & 0x1f;
    2aa4:	8007d2fa 	srai	r3,r16,11
    2aa8:	10c18915 	stw	r3,1572(r2)
        regs->reg_0x0116_rcc_ctl_lpfh_rbb = (value >> 8) & 0x7;
    2aac:	8007d23a 	srai	r3,r16,8
        regs->reg_0x0116_c_ctl_lpfh_rbb = (value >> 0) & 0xff;
    2ab0:	84003fcc 	andi	r16,r16,255
    2ab4:	14018b15 	stw	r16,1580(r2)
        return;
    }
    if (addr == 0x0116)
    {
        regs->reg_0x0116_r_ctl_lpf_rbb = (value >> 11) & 0x1f;
        regs->reg_0x0116_rcc_ctl_lpfh_rbb = (value >> 8) & 0x7;
    2ab8:	18c001cc 	andi	r3,r3,7
    2abc:	10c18a15 	stw	r3,1576(r2)
    2ac0:	003aa906 	br	1568 <__alt_data_end+0xfffc2d68>
        regs->reg_0x0116_c_ctl_lpfh_rbb = (value >> 0) & 0xff;
        return;
    }
    if (addr == 0x0117)
    2ac4:	00c045c4 	movi	r3,279
    2ac8:	88c0061e 	bne	r17,r3,2ae4 <set_addrs_to_default+0x19a4>
    {
        regs->reg_0x0117_rcc_ctl_lpfl_rbb = (value >> 11) & 0x7;
    2acc:	8007d2fa 	srai	r3,r16,11
        regs->reg_0x0117_c_ctl_lpfl_rbb = (value >> 0) & 0x7ff;
    2ad0:	8401ffcc 	andi	r16,r16,2047
    2ad4:	14018d15 	stw	r16,1588(r2)
        regs->reg_0x0116_c_ctl_lpfh_rbb = (value >> 0) & 0xff;
        return;
    }
    if (addr == 0x0117)
    {
        regs->reg_0x0117_rcc_ctl_lpfl_rbb = (value >> 11) & 0x7;
    2ad8:	18c001cc 	andi	r3,r3,7
    2adc:	10c18c15 	stw	r3,1584(r2)
    2ae0:	003aa106 	br	1568 <__alt_data_end+0xfffc2d68>
        regs->reg_0x0117_c_ctl_lpfl_rbb = (value >> 0) & 0x7ff;
        return;
    }
    if (addr == 0x0118)
    2ae4:	00c04604 	movi	r3,280
    2ae8:	88c0081e 	bne	r17,r3,2b0c <set_addrs_to_default+0x19cc>
    {
        regs->reg_0x0118_input_ctl_pga_rbb = (value >> 13) & 0x7;
    2aec:	8007d37a 	srai	r3,r16,13
    2af0:	10c18e15 	stw	r3,1592(r2)
        regs->reg_0x0118_ict_lpf_in_rbb = (value >> 5) & 0x1f;
    2af4:	8007d17a 	srai	r3,r16,5
        regs->reg_0x0118_ict_lpf_out_rbb = (value >> 0) & 0x1f;
    2af8:	840007cc 	andi	r16,r16,31
    2afc:	14019015 	stw	r16,1600(r2)
        return;
    }
    if (addr == 0x0118)
    {
        regs->reg_0x0118_input_ctl_pga_rbb = (value >> 13) & 0x7;
        regs->reg_0x0118_ict_lpf_in_rbb = (value >> 5) & 0x1f;
    2b00:	18c007cc 	andi	r3,r3,31
    2b04:	10c18f15 	stw	r3,1596(r2)
    2b08:	003a9706 	br	1568 <__alt_data_end+0xfffc2d68>
        regs->reg_0x0118_ict_lpf_out_rbb = (value >> 0) & 0x1f;
        return;
    }
    if (addr == 0x0119)
    2b0c:	00c04644 	movi	r3,281
    2b10:	88c00b1e 	bne	r17,r3,2b40 <set_addrs_to_default+0x1a00>
    {
        regs->reg_0x0119_osw_pga_rbb = (value >> 15) & 0x1;
    2b14:	8007d3fa 	srai	r3,r16,15
    2b18:	10c19115 	stw	r3,1604(r2)
        regs->reg_0x0119_ict_pga_out_rbb = (value >> 10) & 0x1f;
    2b1c:	8007d2ba 	srai	r3,r16,10
    2b20:	18c007cc 	andi	r3,r3,31
    2b24:	10c19215 	stw	r3,1608(r2)
        regs->reg_0x0119_ict_pga_in_rbb = (value >> 5) & 0x1f;
    2b28:	8007d17a 	srai	r3,r16,5
        regs->reg_0x0119_g_pga_rbb = (value >> 0) & 0x1f;
    2b2c:	840007cc 	andi	r16,r16,31
    2b30:	14019415 	stw	r16,1616(r2)
    }
    if (addr == 0x0119)
    {
        regs->reg_0x0119_osw_pga_rbb = (value >> 15) & 0x1;
        regs->reg_0x0119_ict_pga_out_rbb = (value >> 10) & 0x1f;
        regs->reg_0x0119_ict_pga_in_rbb = (value >> 5) & 0x1f;
    2b34:	18c007cc 	andi	r3,r3,31
    2b38:	10c19315 	stw	r3,1612(r2)
    2b3c:	003a8a06 	br	1568 <__alt_data_end+0xfffc2d68>
        regs->reg_0x0119_g_pga_rbb = (value >> 0) & 0x1f;
        return;
    }
    if (addr == 0x011A)
    2b40:	00c04684 	movi	r3,282
    2b44:	88c0061e 	bne	r17,r3,2b60 <set_addrs_to_default+0x1a20>
    {
        regs->reg_0x011a_rcc_ctl_pga_rbb = (value >> 9) & 0x1f;
    2b48:	8007d27a 	srai	r3,r16,9
        regs->reg_0x011a_c_ctl_pga_rbb = (value >> 0) & 0xff;
    2b4c:	84003fcc 	andi	r16,r16,255
    2b50:	14019615 	stw	r16,1624(r2)
        regs->reg_0x0119_g_pga_rbb = (value >> 0) & 0x1f;
        return;
    }
    if (addr == 0x011A)
    {
        regs->reg_0x011a_rcc_ctl_pga_rbb = (value >> 9) & 0x1f;
    2b54:	18c007cc 	andi	r3,r3,31
    2b58:	10c19515 	stw	r3,1620(r2)
    2b5c:	003a8206 	br	1568 <__alt_data_end+0xfffc2d68>
        regs->reg_0x011a_c_ctl_pga_rbb = (value >> 0) & 0xff;
        return;
    }
    if (addr == 0x011B)
    2b60:	00c046c4 	movi	r3,283
    2b64:	88c0031e 	bne	r17,r3,2b74 <set_addrs_to_default+0x1a34>
    {
        regs->reg_0x011b_resrv_rbb = (value >> 0) & 0x7f;
    2b68:	84001fcc 	andi	r16,r16,127
    2b6c:	14019715 	stw	r16,1628(r2)
    2b70:	003a7d06 	br	1568 <__alt_data_end+0xfffc2d68>
        return;
    }
    if (addr == 0x011C)
    2b74:	00c04704 	movi	r3,284
    2b78:	88c02f1e 	bne	r17,r3,2c38 <set_addrs_to_default+0x1af8>
    {
        regs->reg_0x011c_reset_n = (value >> 15) & 0x1;
    2b7c:	8007d3fa 	srai	r3,r16,15
    2b80:	10c19815 	stw	r3,1632(r2)
        regs->reg_0x011c_spdup_vco = (value >> 14) & 0x1;
    2b84:	8007d3ba 	srai	r3,r16,14
    2b88:	18c0004c 	andi	r3,r3,1
    2b8c:	10c19915 	stw	r3,1636(r2)
        regs->reg_0x011c_bypldo_vco = (value >> 13) & 0x1;
    2b90:	8007d37a 	srai	r3,r16,13
    2b94:	18c0004c 	andi	r3,r3,1
    2b98:	10c19a15 	stw	r3,1640(r2)
        regs->reg_0x011c_en_coarsepll = (value >> 12) & 0x1;
    2b9c:	8007d33a 	srai	r3,r16,12
    2ba0:	18c0004c 	andi	r3,r3,1
    2ba4:	10c19b15 	stw	r3,1644(r2)
        regs->reg_0x011c_curlim_vco = (value >> 11) & 0x1;
    2ba8:	8007d2fa 	srai	r3,r16,11
    2bac:	18c0004c 	andi	r3,r3,1
    2bb0:	10c19c15 	stw	r3,1648(r2)
        regs->reg_0x011c_en_div2_divprog = (value >> 10) & 0x1;
    2bb4:	8007d2ba 	srai	r3,r16,10
    2bb8:	18c0004c 	andi	r3,r3,1
    2bbc:	10c19d15 	stw	r3,1652(r2)
        regs->reg_0x011c_en_intonly_sdm = (value >> 9) & 0x1;
    2bc0:	8007d27a 	srai	r3,r16,9
    2bc4:	18c0004c 	andi	r3,r3,1
    2bc8:	10c19e15 	stw	r3,1656(r2)
        regs->reg_0x011c_en_sdm_clk = (value >> 8) & 0x1;
    2bcc:	8007d23a 	srai	r3,r16,8
    2bd0:	18c0004c 	andi	r3,r3,1
    2bd4:	10c19f15 	stw	r3,1660(r2)
        regs->reg_0x011c_pd_fbdiv = (value >> 7) & 0x1;
    2bd8:	8007d1fa 	srai	r3,r16,7
    2bdc:	18c0004c 	andi	r3,r3,1
    2be0:	10c1a015 	stw	r3,1664(r2)
        regs->reg_0x011c_pd_loch_t2rbuf = (value >> 6) & 0x1;
    2be4:	8007d1ba 	srai	r3,r16,6
    2be8:	18c0004c 	andi	r3,r3,1
    2bec:	10c1a115 	stw	r3,1668(r2)
        regs->reg_0x011c_pd_cp = (value >> 5) & 0x1;
    2bf0:	8007d17a 	srai	r3,r16,5
    2bf4:	18c0004c 	andi	r3,r3,1
    2bf8:	10c1a215 	stw	r3,1672(r2)
        regs->reg_0x011c_pd_fdiv = (value >> 4) & 0x1;
    2bfc:	8007d13a 	srai	r3,r16,4
    2c00:	18c0004c 	andi	r3,r3,1
    2c04:	10c1a315 	stw	r3,1676(r2)
        regs->reg_0x011c_pd_sdm = (value >> 3) & 0x1;
    2c08:	8007d0fa 	srai	r3,r16,3
    2c0c:	18c0004c 	andi	r3,r3,1
    2c10:	10c1a415 	stw	r3,1680(r2)
        regs->reg_0x011c_pd_vco_comp = (value >> 2) & 0x1;
    2c14:	8007d0ba 	srai	r3,r16,2
    2c18:	18c0004c 	andi	r3,r3,1
    2c1c:	10c1a515 	stw	r3,1684(r2)
        regs->reg_0x011c_pd_vco = (value >> 1) & 0x1;
    2c20:	8007d07a 	srai	r3,r16,1
        regs->reg_0x011c_en_g = (value >> 0) & 0x1;
    2c24:	8400004c 	andi	r16,r16,1
    2c28:	1401a715 	stw	r16,1692(r2)
